******************************************************************************
            TI ARM Clang Linker PC v4.0.3                      
******************************************************************************
>> Linked Mon Oct 20 17:16:49 2025

OUTPUT FILE NAME:   <empty_awr294x-evm_r5fss0-0_freertos_ti-arm-clang.out>
ENTRY POINT SYMBOL: "_vectors"  address: 00000000


MEMORY CONFIGURATION

         name            origin    length      used     unused   attr    fill
----------------------  --------  ---------  --------  --------  ----  --------
  R5F_VECS              00000000   00000040  00000040  00000000  RWIX
  R5F_TCMA              00000040   00003fc0  00000000  00003fc0  RWIX
  R5F_TCMB              00080000   00004000  00000000  00004000  RWIX
  MSS_L2                10260000   00040000  00038fe8  00007018  RWIX
  USER_SHM_MEM          102e8000   00004000  00000000  00004000  RWIX
  LOG_SHM_MEM           102ec000   00004000  00000000  00004000  RWIX
  MAILBOX_HSM           44000000   000003ce  00000000  000003ce  RWIX
  MAILBOX_R5F           44000400   000003ce  00000000  000003ce  RWIX
  DSS_L3                88000000   00280000  00000000  00280000  RWIX
  RTOS_NORTOS_IPC_SHM_M c5000200   00001d40  000012c0  00000a80  RWIX


SEGMENT ALLOCATION MAP

run origin  load origin   length   init length attrs members
----------  ----------- ---------- ----------- ----- -------
00000000    00000000    00000040   00000040    r-x
  00000000    00000000    00000040   00000040    r-x .vectors
10260000    10260000    0001b470   0001b470    r-x
  10260000    10260000    00017fc0   00017fc0    r-x .text
  10277fc0    10277fc0    000034b0   000034b0    r-- .rodata
1027b480    1027b480    00018100   00000000    rw-
  1027b480    1027b480    0000c100   00000000    rw- .bss
  10287580    10287580    00008000   00000000    rw- .sysmem
  1028f580    1028f580    00004000   00000000    rw- .stack
10293580    10293580    00002e80   00002e80    rw-
  10293580    10293580    00002e80   00002e80    rw- .data
10296400    10296400    000017f8   000017f8    r-x
  10296400    10296400    00000f20   00000f20    r-x .text.hwi
  10297320    10297320    000004a0   000004a0    r-x .text.cache
  102977c0    102977c0    000002c0   000002c0    r-x .text.mpu
  10297a80    10297a80    00000170   00000170    r-x .text.boot
  10297bf0    10297bf0    00000008   00000008    r-x .text:abort
10297bf8    10297bf8    00001400   00000000    rw-
  10297bf8    10297bf8    00000100   00000000    rw- .irqstack
  10297cf8    10297cf8    00000100   00000000    rw- .fiqstack
  10297df8    10297df8    00001000   00000000    rw- .svcstack
  10298df8    10298df8    00000100   00000000    rw- .abortstack
  10298ef8    10298ef8    00000100   00000000    rw- .undefinedstack


SECTION ALLOCATION MAP

 output                                  attributes/
section   page    origin      length       input sections
--------  ----  ----------  ----------   ----------------
.vectors   0    00000000    00000040     
                  00000000    00000040     freertos.awr294x.r5f.ti-arm-clang.debug.lib : HwiP_armv7r_vectors_freertos_asm.obj (.vectors)

.text      0    10260000    00017fc0     
                  10260000    00000fc0     libc.a : _printfi.c.obj (.text:__TI_printfi)
                  10260fc0    00000a34     freertos.awr294x.r5f.ti-arm-clang.debug.lib : printf.obj (.text._vsnprintf)
                  102619f4    0000000c     libc.a : aeabi_portable.c.obj (.text.__aeabi_errno_addr)
                  10261a00    00000740     drivers.awr294x.r5f.ti-arm-clang.debug.lib : soc_rcm.obj (.text.SOC_rcmGetClkSrcAndDivValue)
                  10262140    00000664     cli_mmwave.o (.text.CLI_MMWaveAdvChirpCfg)
                  102627a4    0000000c     libclang_rt.builtins.a : aeabi_memset.S.obj (.text.__aeabi_memclr)
                  102627b0    0000051e     freertos.awr294x.r5f.ti-arm-clang.debug.lib : printf.obj (.text._ftoa)
                  10262cce    00000002     --HOLE-- [fill = 0]
                  10262cd0    00000518     drivers.awr294x.r5f.ti-arm-clang.debug.lib : ipc_notify_v1.obj (.text.IpcNotify_init)
                  102631e8    000004d4     libc.a : strtod.c.obj (.text.strtod)
                  102636bc    00000004     libclang_rt.builtins.a : aeabi_div0.c.obj (.text.__aeabi_idiv0)
                  102636c0    00000478     freertos.awr294x.r5f.ti-arm-clang.debug.lib : printf.obj (.text._etoa)
                  10263b38    00000008     libsysbm.a : hostexit.c.obj (.text.HOSTexit)
                  10263b40    000003dc     cli_mmwave.o (.text.CLI_MMWaveLUTDataCfg)
                  10263f1c    00000004     libclang_rt.builtins.a : aeabi_div0.c.obj (.text.__aeabi_ldiv0)
                  10263f20    00000390     libc.a : strcmp32.S.obj (.text:strcmp)
                  102642b0    00000370     drivers.awr294x.r5f.ti-arm-clang.debug.lib : soc_rcm.obj (.text.SOC_rcmGetClkSrcAndDivReg)
                  10264620    0000033c                                                : ipc_notify_v1.obj (.text.IpcNotify_isr)
                  1026495c    00000004     libclang_rt.builtins.a : aeabi_memcpy.S.obj (.text.__aeabi_memcpy)
                  10264960    00000336     drivers.awr294x.r5f.ti-arm-clang.debug.lib : edma.obj (.text.EDMA_initialize)
                  10264c96    00000002     --HOLE-- [fill = 0]
                  10264c98    00000008     libc.a : atof.c.obj (.text.atof)
                  10264ca0    000002e8     rl_driver.o (.text.rlDriverCmdInvoke)
                  10264f88    00000004     libc.a : _lock.c.obj (.text._nop)
                  10264f8c    00000004            : fseek.c.obj (.text.fseek)
                  10264f90    000002d2     rl_driver.o (.text.rlDriverMsgRead)
                  10265262    00000002     --HOLE-- [fill = 0]
                  10265264    0000000c     libc.a : memory.c.obj (.text.malloc)
                  10265270    000002ce     drivers.awr294x.r5f.ti-arm-clang.debug.lib : uart_sci_edma.obj (.text.UART_edmaChannelConfig)
                  1026553e    00000002     --HOLE-- [fill = 0]
                  10265540    000002cc     cli_mmwave.o (.text.CLI_MMWaveProfileCfg)
                  1026580c    00000004     libsysbm.a : remove.c.obj (.text.remove)
                  10265810    0000029e     drivers.awr294x.r5f.ti-arm-clang.debug.lib : uart_sci.obj (.text.UART_open)
                  10265aae    00000002     --HOLE-- [fill = 0]
                  10265ab0    00000282                                                : edma.obj (.text.EDMA_open)
                  10265d32    00000006     --HOLE-- [fill = 0]
                  10265d38    00000280     libc.a : _printfi.c.obj (.text._pconv_a)
                  10265fb8    00000008     --HOLE-- [fill = 0]
                  10265fc0    00000250     drivers.awr294x.r5f.ti-arm-clang.debug.lib : edma.obj (.text.Alloc_resource)
                  10266210    0000024a     rl_driver.o (.text.rlDriverRdVerifyMsg)
                  1026645a    00000006     --HOLE-- [fill = 0]
                  10266460    0000023e     drivers.awr294x.r5f.ti-arm-clang.debug.lib : uart_sci.obj (.text.UART_controllerIsr)
                  1026669e    00000002     --HOLE-- [fill = 0]
                  102666a0    0000023e     freertos.awr294x.r5f.ti-arm-clang.debug.lib : printf.obj (.text._ntoa_format)
                  102668de    00000002     --HOLE-- [fill = 0]
                  102668e0    0000023c                                                 : queue.obj (.text.xQueueSemaphoreTake)
                  10266b1c    00000004     --HOLE-- [fill = 0]
                  10266b20    00000238     libc.a : _printfi.c.obj (.text._pconv_g)
                  10266d58    00000008     --HOLE-- [fill = 0]
                  10266d60    00000226     freertos.awr294x.r5f.ti-arm-clang.debug.lib : queue.obj (.text.xQueueGenericSend)
                  10266f86    0000000a     --HOLE-- [fill = 0]
                  10266f90    0000020c     drivers.awr294x.r5f.ti-arm-clang.debug.lib : soc.obj (.text.SOC_controlModuleUnlockMMR)
                  1026719c    00000004     --HOLE-- [fill = 0]
                  102671a0    00000200                                                : ipc_rpmsg.obj (.text.RPMessage_send)
                  102673a0    000001e4     cli_mmwave.o (.text.CLI_MMWaveChirpCfg)
                  10267584    0000000c     freertos.awr294x.r5f.ti-arm-clang.debug.lib : CpuId_armv7r_asm.obj (.text)
                  10267590    000001e0     rl_driver.o (.text.rlDriverMsgWrite)
                  10267770    000001de     freertos.awr294x.r5f.ti-arm-clang.debug.lib : queue.obj (.text.xQueueReceive)
                  1026794e    00000002     --HOLE-- [fill = 0]
                  10267950    000001d6                                                 : TimerP_rti.obj (.text.TimerP_setup)
                  10267b26    0000000a     --HOLE-- [fill = 0]
                  10267b30    000001d4     cli_mmwave.o (.text.CLI_MMWaveVersion)
                  10267d04    000001d0     libclang_rt.builtins.a : udivsi3.S.obj (.text.__udivsi3)
                  10267ed4    0000000c     --HOLE-- [fill = 0]
                  10267ee0    000001c8     drivers.awr294x.r5f.ti-arm-clang.debug.lib : soc.obj (.text.SOC_virtToPhy)
                  102680a8    00000008     --HOLE-- [fill = 0]
                  102680b0    000001c2     freertos.awr294x.r5f.ti-arm-clang.debug.lib : timers.obj (.text.prvProcessReceivedCommands)
                  10268272    0000000e     --HOLE-- [fill = 0]
                  10268280    000001bc     drivers.awr294x.r5f.ti-arm-clang.debug.lib : soc.obj (.text.SOC_controlModuleLockMMR)
                  1026843c    00000004     --HOLE-- [fill = 0]
                  10268440    000001b6     rl_driver.o (.text.rlDriverMsgCmdReply)
                  102685f6    0000000a     --HOLE-- [fill = 0]
                  10268600    000001b4     freertos.awr294x.r5f.ti-arm-clang.debug.lib : HeapP_internal.obj (.text.pvHeapMalloc)
                  102687b4    0000000c     --HOLE-- [fill = 0]
                  102687c0    000001ae     cli.o (.text.CLI_task)
                  1026896e    00000002     --HOLE-- [fill = 0]
                  10268970    000001ae     drivers.awr294x.r5f.ti-arm-clang.debug.lib : ipc_rpmsg.obj (.text.RPMessage_recv)
                  10268b1e    00000002     --HOLE-- [fill = 0]
                  10268b20    000001ac                                                : edma.obj (.text.EDMA_transferCompletionMasterIsrFxn)
                  10268ccc    00000004     --HOLE-- [fill = 0]
                  10268cd0    000001aa                                                : uart_sci.obj (.text.UART_close)
                  10268e7a    00000002     --HOLE-- [fill = 0]
                  10268e7c    000001a8     libc.a : memory.c.obj (.text.free)
                  10269024    0000000c     --HOLE-- [fill = 0]
                  10269030    000001a6     freertos.awr294x.r5f.ti-arm-clang.debug.lib : tasks.obj (.text.xTaskIncrementTick)
                  102691d6    00000002     --HOLE-- [fill = 0]
                  102691d8    000001a4     libc.a : memory.c.obj (.text.aligned_alloc)
                  1026937c    00000004     --HOLE-- [fill = 0]
                  10269380    000001a2     rl_driver.o (.text.rlDriverRxHdrRead)
                  10269522    0000000e     --HOLE-- [fill = 0]
                  10269530    00000198     drivers.awr294x.r5f.ti-arm-clang.debug.lib : uart_sci.obj (.text.UART_configInstance)
                  102696c8    00000008     --HOLE-- [fill = 0]
                  102696d0    00000198     rl_driver.o (.text.rlDriverReceiveSync)
                  10269868    00000008     --HOLE-- [fill = 0]
                  10269870    00000194     drivers.awr294x.r5f.ti-arm-clang.debug.lib : ipc_rpmsg.obj (.text.RPMessage_init)
                  10269a04    0000000c     --HOLE-- [fill = 0]
                  10269a10    00000194                                                : soc_rcm.obj (.text.SOC_rcmGetHSDIVClkOutMuxClkSrc)
                  10269ba4    0000000c     --HOLE-- [fill = 0]
                  10269bb0    0000018e     freertos.awr294x.r5f.ti-arm-clang.debug.lib : ClockP_freertos_r5.obj (.text.ClockP_init)
                  10269d3e    00000002     --HOLE-- [fill = 0]
                  10269d40    0000018c     cli.o (.text.CLI_open)
                  10269ecc    00000004     --HOLE-- [fill = 0]
                  10269ed0    0000018a     rl_driver.o (.text.rlDriverCmdWriter)
                  1026a05a    00000006     --HOLE-- [fill = 0]
                  1026a060    0000018a     freertos.awr294x.r5f.ti-arm-clang.debug.lib : tasks.obj (.text.vTaskSwitchContext)
                  1026a1ea    00000006     --HOLE-- [fill = 0]
                  1026a1f0    00000188                                                 : queue.obj (.text.xQueueGenericSendFromISR)
                  1026a378    00000008     --HOLE-- [fill = 0]
                  1026a380    00000184     cli_mmwave.o (.text.CLI_MMWaveSubFrameCfg)
                  1026a504    0000000c     --HOLE-- [fill = 0]
                  1026a510    00000182     drivers.awr294x.r5f.ti-arm-clang.debug.lib : ipc_rpmsg_vring.obj (.text.RPMessage_vringResetInternal)
                  1026a692    0000000e     --HOLE-- [fill = 0]
                  1026a6a0    0000017e     freertos.awr294x.r5f.ti-arm-clang.debug.lib : tasks.obj (.text.xTaskResumeAll)
                  1026a81e    00000002     --HOLE-- [fill = 0]
                  1026a820    00000178     drivers.awr294x.r5f.ti-arm-clang.debug.lib : edma.obj (.text.EDMA_errorIsrFxn)
                  1026a998    00000008     --HOLE-- [fill = 0]
                  1026a9a0    00000174                                                : ipc_rpmsg.obj (.text.RPMessage_recvHandler)
                  1026ab14    0000000c     --HOLE-- [fill = 0]
                  1026ab20    00000172                                                : uart_sci.obj (.text.UART_write)
                  1026ac92    0000000e     --HOLE-- [fill = 0]
                  1026aca0    00000162     mmwave_fullcfg.o (.text.MMWave_flushCfg)
                  1026ae02    0000000e     --HOLE-- [fill = 0]
                  1026ae10    0000015e     freertos.awr294x.r5f.ti-arm-clang.debug.lib : queue.obj (.text.xQueueGiveFromISR)
                  1026af6e    00000002     --HOLE-- [fill = 0]
                  1026af70    0000015c     cli_mmwave.o (.text.CLI_MMWaveFrameCfg)
                  1026b0cc    00000004     --HOLE-- [fill = 0]
                  1026b0d0    00000156     drivers.awr294x.r5f.ti-arm-clang.debug.lib : ipc_notify_v1.obj (.text.IpcNotify_sendMsg)
                  1026b226    0000000a     --HOLE-- [fill = 0]
                  1026b230    00000156                                                : uart_sci.obj (.text.UART_read)
                  1026b386    0000000a     --HOLE-- [fill = 0]
                  1026b390    00000154                                                : ipc_notify_v1_cfg.obj (.text.IpcNotify_trigInterrupt_ack)
                  1026b4e4    0000000c     --HOLE-- [fill = 0]
                  1026b4f0    00000152     freertos.awr294x.r5f.ti-arm-clang.debug.lib : tasks.obj (.text.vTaskPriorityDisinheritAfterTimeout)
                  1026b642    00000006     --HOLE-- [fill = 0]
                  1026b648    00000150     libc.a : s_scalbn.c.obj (.text.scalbn)
                  1026b798    00000008     --HOLE-- [fill = 0]
                  1026b7a0    0000014a     freertos.awr294x.r5f.ti-arm-clang.debug.lib : tasks.obj (.text.prvInitialiseNewTask)
                  1026b8ea    00000006     --HOLE-- [fill = 0]
                  1026b8f0    0000014a                                                 : queue.obj (.text.xQueueGenericCreateStatic)
                  1026ba3a    00000006     --HOLE-- [fill = 0]
                  1026ba40    00000148     libc.a : _printfi.c.obj (.text.fcvt)
                  1026bb88    00000008     --HOLE-- [fill = 0]
                  1026bb90    00000146     drivers.awr294x.r5f.ti-arm-clang.debug.lib : soc_rcm.obj (.text.SOC_rcmGetDpllHSDivOutFreq)
                  1026bcd6    00000002     --HOLE-- [fill = 0]
                  1026bcd8    00000144     libc.a : setvbuf.c.obj (.text.setvbuf)
                  1026be1c    00000004     --HOLE-- [fill = 0]
                  1026be20    00000140            : _printfi.c.obj (.text._pconv_e)
                  1026bf60    00000140     rl_driver.o (.text.rlDriverWaitForResponse)
                  1026c0a0    0000013c     drivers.awr294x.r5f.ti-arm-clang.debug.lib : ipc_notify_v1_cfg.obj (.text.IpcNotify_trigInterrupt)
                  1026c1dc    00000004     --HOLE-- [fill = 0]
                  1026c1e0    0000013a                                                : uart_sci_edma.obj (.text.UART_readDma)
                  1026c31a    00000006     --HOLE-- [fill = 0]
                  1026c320    0000013a                                                : uart_sci_edma.obj (.text.UART_writeDma)
                  1026c45a    00000006     --HOLE-- [fill = 0]
                  1026c460    0000013a     freertos.awr294x.r5f.ti-arm-clang.debug.lib : queue.obj (.text.xQueueReceiveFromISR)
                  1026c59a    00000006     --HOLE-- [fill = 0]
                  1026c5a0    00000138                                                 : printf.obj (.text._ntoa_long_long)
                  1026c6d8    00000008     --HOLE-- [fill = 0]
                  1026c6e0    00000134     drivers.awr294x.r5f.ti-arm-clang.debug.lib : ipc_rpmsg_vring.obj (.text.RPMessage_vringReset)
                  1026c814    0000000c     --HOLE-- [fill = 0]
                  1026c820    00000132     rl_driver.o (.text.rlDriverMsgReadCmdCtx)
                  1026c952    0000000e     --HOLE-- [fill = 0]
                  1026c960    00000128     freertos.awr294x.r5f.ti-arm-clang.debug.lib : port.obj (.text.pxPortInitialiseStack)
                  1026ca88    00000008     --HOLE-- [fill = 0]
                  1026ca90    00000120                                                 : tasks.obj (.text.eTaskGetState)
                  1026cbb0    0000011e     mmwave_fullcfg.o (.text.MMWave_addChirp)
                  1026ccce    00000002     --HOLE-- [fill = 0]
                  1026ccd0    0000011e     drivers.awr294x.r5f.ti-arm-clang.debug.lib : soc_rcm.obj (.text.SOC_rcmGetApllHSDivOutFreq)
                  1026cdee    00000002     --HOLE-- [fill = 0]
                  1026cdf0    00000118     cli.o (.text.CLI_readLine)
                  1026cf08    00000008     --HOLE-- [fill = 0]
                  1026cf10    00000118     ti_drivers_config.o (.text.System_init)
                  1026d028    00000008     --HOLE-- [fill = 0]
                  1026d030    00000118     freertos.awr294x.r5f.ti-arm-clang.debug.lib : TaskP_freertos.obj (.text.TaskP_loadUpdateAll)
                  1026d148    00000118     libclang_rt.builtins.a : udivmoddi4.S.obj (.text)
                  1026d260    00000114     mmwave_fullcfg.o (.text.MMWave_addProfile)
                  1026d374    0000000c     --HOLE-- [fill = 0]
                  1026d380    00000114     freertos.awr294x.r5f.ti-arm-clang.debug.lib : printf.obj (.text._ntoa_long)
                  1026d494    0000000c     --HOLE-- [fill = 0]
                  1026d4a0    0000010e                                                 : tasks.obj (.text.prvAddNewTaskToReadyList)
                  1026d5ae    00000002     --HOLE-- [fill = 0]
                  1026d5b0    0000010e                                                 : tasks.obj (.text.xTaskPriorityInherit)
                  1026d6be    00000002     --HOLE-- [fill = 0]
                  1026d6c0    0000010a                                                 : tasks.obj (.text.vTaskDelete)
                  1026d7ca    00000006     --HOLE-- [fill = 0]
                  1026d7d0    00000106                                                 : tasks.obj (.text.xTaskPriorityDisinherit)
                  1026d8d6    0000000a     --HOLE-- [fill = 0]
                  1026d8e0    00000102     drivers.awr294x.r5f.ti-arm-clang.debug.lib : soc_rcm.obj (.text.SOC_rcmADPLLJGetFOut)
                  1026d9e2    0000000e     --HOLE-- [fill = 0]
                  1026d9f0    00000102     rl_driver.o (.text.rlDriverAppendDummyByte)
                  1026daf2    0000000e     --HOLE-- [fill = 0]
                  1026db00    000000fa     drivers.awr294x.r5f.ti-arm-clang.debug.lib : edma.obj (.text.EDMA_clearCcErrors)
                  1026dbfa    00000006     --HOLE-- [fill = 0]
                  1026dc00    000000f8     rl_driver.o (.text.rlDriverProcRdMsg)
                  1026dcf8    00000008     --HOLE-- [fill = 0]
                  1026dd00    000000f6     drivers.awr294x.r5f.ti-arm-clang.debug.lib : edma.obj (.text.EDMA_registerIntr)
                  1026ddf6    0000000a     --HOLE-- [fill = 0]
                  1026de00    000000f6     mmwave_fullcfg.o (.text.MMWave_addAdvChirpLUTData)
                  1026def6    0000000a     --HOLE-- [fill = 0]
                  1026df00    000000f6     rl_driver.o (.text.rlDriverMsgReadSpawnCtx)
                  1026dff6    0000000a     --HOLE-- [fill = 0]
                  1026e000    000000f4     cli_mmwave.o (.text.CLI_MMWaveAdvFrameCfg)
                  1026e0f4    0000000c     --HOLE-- [fill = 0]
                  1026e100    000000f2     drivers.awr294x.r5f.ti-arm-clang.debug.lib : ipc_rpmsg_vring.obj (.text.RPMessage_vringPutFullTxBuf)
                  1026e1f2    0000000e     --HOLE-- [fill = 0]
                  1026e200    000000f0     cli_mmwave.o (.text.CLI_MMWaveContModeCfg)
                  1026e2f0    000000f0     libc.a : fputc.c.obj (.text.fputc)
                  1026e3e0    000000ee     freertos.awr294x.r5f.ti-arm-clang.debug.lib : tasks.obj (.text.vTaskStartScheduler)
                  1026e4ce    00000002     --HOLE-- [fill = 0]
                  1026e4d0    000000ee                                                 : tasks.obj (.text.xTaskCreateStatic)
                  1026e5be    00000002     --HOLE-- [fill = 0]
                  1026e5c0    000000ec                                                 : tasks.obj (.text.xTaskCheckForTimeOut)
                  1026e6ac    00000004     --HOLE-- [fill = 0]
                  1026e6b0    000000ea     drivers.awr294x.r5f.ti-arm-clang.debug.lib : uart_sci.obj (.text.UART_readPolling)
                  1026e79a    00000006     --HOLE-- [fill = 0]
                  1026e7a0    000000e6     mmwave_fullcfg.o (.text.MMWave_getAdvChirpHandle)
                  1026e886    0000000a     --HOLE-- [fill = 0]
                  1026e890    000000e4     mmwave_fullcfg.o (.text.MMWave_addBpmChirp)
                  1026e974    0000000c     --HOLE-- [fill = 0]
                  1026e980    000000e4     mmwave_fullcfg.o (.text.MMWave_getProfileHandle)
                  1026ea64    0000000c     --HOLE-- [fill = 0]
                  1026ea70    000000e4     freertos.awr294x.r5f.ti-arm-clang.debug.lib : timers.obj (.text.prvSwitchTimerLists)
                  1026eb54    0000000c     --HOLE-- [fill = 0]
                  1026eb60    000000e2     drivers.awr294x.r5f.ti-arm-clang.debug.lib : edma.obj (.text.EDMA_freeParam)
                  1026ec42    0000000e     --HOLE-- [fill = 0]
                  1026ec50    000000e2     freertos.awr294x.r5f.ti-arm-clang.debug.lib : tasks.obj (.text.vTaskGetInfo)
                  1026ed32    0000000e     --HOLE-- [fill = 0]
                  1026ed40    000000e0     drivers.awr294x.r5f.ti-arm-clang.debug.lib : edma.obj (.text.EDMA_freeDmaChannel)
                  1026ee20    000000e0                                                : edma.obj (.text.EDMA_freeTcc)
                  1026ef00    000000e0                                                : mailbox.obj (.text.Mailbox_init)
                  1026efe0    000000e0                                                : uart_sci.obj (.text.UART_writeInterrupt)
                  1026f0c0    000000de     mmwave_fullcfg.o (.text.MMWave_addAdvChirpParam)
                  1026f19e    00000002     --HOLE-- [fill = 0]
                  1026f1a0    000000de     drivers.awr294x.r5f.ti-arm-clang.debug.lib : uart_sci.obj (.text.UART_flushTxFifo)
                  1026f27e    00000002     --HOLE-- [fill = 0]
                  1026f280    000000de     freertos.awr294x.r5f.ti-arm-clang.debug.lib : tasks.obj (.text.xTaskRemoveFromEventList)
                  1026f35e    00000002     --HOLE-- [fill = 0]
                  1026f360    000000dc     drivers.awr294x.r5f.ti-arm-clang.debug.lib : ipc_rpmsg_vring.obj (.text.RPMessage_vringGetFullRxBuf)
                  1026f43c    00000004     --HOLE-- [fill = 0]
                  1026f440    000000dc                                                : soc_rcm.obj (.text.SOC_rcmGetCoreFout)
                  1026f51c    00000004     --HOLE-- [fill = 0]
                  1026f520    000000dc                                                : soc_rcm.obj (.text.SOC_rcmGetDSSFout)
                  1026f5fc    00000004     --HOLE-- [fill = 0]
                  1026f600    000000dc                                                : soc_rcm.obj (.text.SOC_rcmGetPerFout)
                  1026f6dc    00000004     --HOLE-- [fill = 0]
                  1026f6e0    000000d8                                                : uart_sci.obj (.text.UART_writePolling)
                  1026f7b8    00000008     --HOLE-- [fill = 0]
                  1026f7c0    000000d6     cli_mmwave.o (.text.CLI_MMWaveAdvFrameDataCfg)
                  1026f896    0000000a     --HOLE-- [fill = 0]
                  1026f8a0    000000d4     drivers.awr294x.r5f.ti-arm-clang.debug.lib : ipc_rpmsg.obj (.text.RPMessage_construct)
                  1026f974    0000000c     --HOLE-- [fill = 0]
                  1026f980    000000d4     freertos.awr294x.r5f.ti-arm-clang.debug.lib : tasks.obj (.text.prvAddCurrentTaskToDelayedList)
                  1026fa54    0000000c     --HOLE-- [fill = 0]
                  1026fa60    000000d2     drivers.awr294x.r5f.ti-arm-clang.debug.lib : ipc_rpmsg_vring.obj (.text.RPMessage_vringPutEmptyRxBuf)
                  1026fb32    0000000e     --HOLE-- [fill = 0]
                  1026fb40    000000d2     R5F_0.o (.text.r5f0_main)
                  1026fc12    0000000e     --HOLE-- [fill = 0]
                  1026fc20    000000cc     drivers.awr294x.r5f.ti-arm-clang.debug.lib : edma.obj (.text.EDMA_enableChInShadowRegRegion)
                  1026fcec    00000004     --HOLE-- [fill = 0]
                  1026fcf0    000000cc     freertos.awr294x.r5f.ti-arm-clang.debug.lib : queue.obj (.text.prvCopyDataToQueue)
                  1026fdbc    00000004     --HOLE-- [fill = 0]
                  1026fdc0    000000c8     drivers.awr294x.r5f.ti-arm-clang.debug.lib : ipc_rpmsg_vring.obj (.text.RPMessage_vringGetEmptyTxBuf)
                  1026fe88    000000c8     libc.a : getdevice.c.obj (.text.getdevice)
                  1026ff50    000000c8     rl_driver.o (.text.rlDriverAsyncEventHandler)
                  10270018    00000008     --HOLE-- [fill = 0]
                  10270020    000000c6     drivers.awr294x.r5f.ti-arm-clang.debug.lib : ipc_rpmsg.obj (.text.RPMessage_coreInit)
                  102700e6    0000000a     --HOLE-- [fill = 0]
                  102700f0    000000c4                                                : edma.obj (.text.EDMA_mapChToEvtQ)
                  102701b4    0000000c     --HOLE-- [fill = 0]
                  102701c0    000000c4                                                : ipc_notify_v1.obj (.text.IpcNotify_readAckCallback)
                  10270284    0000000c     --HOLE-- [fill = 0]
                  10270290    000000c4     rl_driver.o (.text.rlDeviceIdentifyCmdDir)
                  10270354    0000000c     --HOLE-- [fill = 0]
                  10270360    000000c2     drivers.awr294x.r5f.ti-arm-clang.debug.lib : edma.obj (.text.EDMA_close)
                  10270422    0000000e     --HOLE-- [fill = 0]
                  10270430    000000c0                                                : edma.obj (.text.EDMA_configureChannelRegion)
                  102704f0    000000c0     freertos.awr294x.r5f.ti-arm-clang.debug.lib : printf.obj (.text._out_rev)
                  102705b0    000000c0                                                 : timers.obj (.text.xTimerGenericCommand)
                  10270670    000000be     cli_mmwave.o (.text.CLI_MMWaveDataOutputMode)
                  1027072e    00000002     --HOLE-- [fill = 0]
                  10270730    000000be     rl_driver.o (.text.rlDriverOriginDirCheck)
                  102707ee    00000002     --HOLE-- [fill = 0]
                  102707f0    000000be     freertos.awr294x.r5f.ti-arm-clang.debug.lib : HeapP_internal.obj (.text.vHeapFree)
                  102708ae    00000002     --HOLE-- [fill = 0]
                  102708b0    000000bc     libc.a : _printfi.c.obj (.text._mcpy)
                  1027096c    00000004     --HOLE-- [fill = 0]
                  10270970    000000b8     R5F_0.o (.text.cmd_mul)
                  10270a28    00000008     --HOLE-- [fill = 0]
                  10270a30    000000b8     R5F_0.o (.text.cmd_sub)
                  10270ae8    00000008     --HOLE-- [fill = 0]
                  10270af0    000000b6     drivers.awr294x.r5f.ti-arm-clang.debug.lib : uart_sci.obj (.text.UART_readInterrupt)
                  10270ba6    0000000a     --HOLE-- [fill = 0]
                  10270bb0    000000b6     freertos.awr294x.r5f.ti-arm-clang.debug.lib : HeapP_internal.obj (.text.prvInsertBlockIntoFreeList)
                  10270c66    0000000a     --HOLE-- [fill = 0]
                  10270c70    000000b6                                                 : queue.obj (.text.xQueueGenericReset)
                  10270d26    00000002     --HOLE-- [fill = 0]
                  10270d28    000000b4     libc.a : fseek.c.obj (.text.fseeko)
                  10270ddc    00000004     --HOLE-- [fill = 0]
                  10270de0    000000b2     cli_mmwave.o (.text.CLI_MMWaveBPMCfgAdvanced)
                  10270e92    0000000e     --HOLE-- [fill = 0]
                  10270ea0    000000b2     drivers.awr294x.r5f.ti-arm-clang.debug.lib : soc_rcm.obj (.text.SOC_rcmGetXTALFrequency)
                  10270f52    0000000e     --HOLE-- [fill = 0]
                  10270f60    000000b0     cli.o (.text.CLI_help)
                  10271010    000000b0     drivers.awr294x.r5f.ti-arm-clang.debug.lib : soc_rcm.obj (.text.SOC_rcmSetPeripheralClock)
                  102710c0    000000b0                                                : uart_sci.obj (.text.UART_init)
                  10271170    000000b0     libc.a : fclose.c.obj (.text.__TI_closefile)
                  10271220    000000ae     cli_mmwave.o (.text.CLI_MMWaveApllSynthBwConfig)
                  102712ce    00000002     --HOLE-- [fill = 0]
                  102712d0    000000ae     ti_drivers_config.o (.text.Drivers_uartInit)
                  1027137e    00000002     --HOLE-- [fill = 0]
                  10271380    000000ae     freertos.awr294x.r5f.ti-arm-clang.debug.lib : queue.obj (.text.prvUnlockQueue)
                  1027142e    00000002     --HOLE-- [fill = 0]
                  10271430    000000ac                                                 : SemaphoreP_freertos.obj (.text.SemaphoreP_constructBinary)
                  102714dc    00000004     --HOLE-- [fill = 0]
                  102714e0    000000aa     ti_drivers_open_close.o (.text.Drivers_uartOpen)
                  1027158a    00000006     --HOLE-- [fill = 0]
                  10271590    000000aa     drivers.awr294x.r5f.ti-arm-clang.debug.lib : soc_rcm.obj (.text.SOC_rcmGetFreqLeafNode)
                  1027163a    00000006     --HOLE-- [fill = 0]
                  10271640    000000a8                                                : soc_rcm.obj (.text.SOC_rcmGetCoreHSDivOut)
                  102716e8    00000008     --HOLE-- [fill = 0]
                  102716f0    000000a8                                                : soc_rcm.obj (.text.SOC_rcmGetDSSHSDivOut)
                  10271798    00000008     --HOLE-- [fill = 0]
                  102717a0    000000a8                                                : soc_rcm.obj (.text.SOC_rcmGetPerHSDivOut)
                  10271848    00000008     --HOLE-- [fill = 0]
                  10271850    000000a8     freertos.awr294x.r5f.ti-arm-clang.debug.lib : PmuP_armv7r.obj (.text.pmu)
                  102718f8    00000008     --HOLE-- [fill = 0]
                  10271900    000000a6     ti_drivers_open_close.o (.text.Drivers_edmaOpen)
                  102719a6    0000000a     --HOLE-- [fill = 0]
                  102719b0    000000a6     drivers.awr294x.r5f.ti-arm-clang.debug.lib : uart_sci_edma.obj (.text.UART_txEdmaIsrFxn)
                  10271a56    00000002     --HOLE-- [fill = 0]
                  10271a58    000000a4     libc.a : memory.c.obj (.text.split)
                  10271afc    00000004     --HOLE-- [fill = 0]
                  10271b00    000000a4     freertos.awr294x.r5f.ti-arm-clang.debug.lib : timers.obj (.text.xTimerCreateTimerTask)
                  10271ba4    0000000c     --HOLE-- [fill = 0]
                  10271bb0    000000a2     drivers.awr294x.r5f.ti-arm-clang.debug.lib : ipc_notify_v1.obj (.text.IpcNotify_mailboxWrite)
                  10271c52    0000000e     --HOLE-- [fill = 0]
                  10271c60    000000a2                                                : uart_sci_edma.obj (.text.UART_rxEdmaIsrFxn)
                  10271d02    0000000e     --HOLE-- [fill = 0]
                  10271d10    000000a2     freertos.awr294x.r5f.ti-arm-clang.debug.lib : timers.obj (.text.prvCheckForValidListAndQueue)
                  10271db2    0000000e     --HOLE-- [fill = 0]
                  10271dc0    000000a2     rl_driver.o (.text.rlDriverExecuteGetApi)
                  10271e62    00000002     --HOLE-- [fill = 0]
                  10271e64    000000a0     libsysbm.a : hostrename.c.obj (.text.HOSTrename)
                  10271f04    0000000c     --HOLE-- [fill = 0]
                  10271f10    000000a0     freertos.awr294x.r5f.ti-arm-clang.debug.lib : HeapP_internal.obj (.text.prvHeapInit)
                  10271fb0    0000009e                                                 : timers.obj (.text.prvProcessExpiredTimer)
                  1027204e    00000002     --HOLE-- [fill = 0]
                  10272050    0000009e     rl_driver.o (.text.rlDriverCalChkSum)
                  102720ee    00000002     --HOLE-- [fill = 0]
                  102720f0    0000009c     libc.a : _io_perm.c.obj (.text.__TI_wrt_ok)
                  1027218c    00000098     libsysbm.a : hostlseek.c.obj (.text.HOSTlseek)
                  10272224    0000000c     --HOLE-- [fill = 0]
                  10272230    00000098     drivers.awr294x.r5f.ti-arm-clang.debug.lib : ipc_notify_v1.obj (.text.IpcNotify_registerClient)
                  102722c8    00000094     libsysbm.a : hostopen.c.obj (.text.HOSTopen)
                  1027235c    00000004     --HOLE-- [fill = 0]
                  10272360    00000094     drivers.awr294x.r5f.ti-arm-clang.debug.lib : ipc_notify_v1.obj (.text.IpcNotify_Params_init)
                  102723f4    0000000c     --HOLE-- [fill = 0]
                  10272400    00000092     freertos.awr294x.r5f.ti-arm-clang.debug.lib : DebugP_freertos.obj (.text._DebugP_logZone)
                  10272492    0000000e     --HOLE-- [fill = 0]
                  102724a0    00000090     drivers.awr294x.r5f.ti-arm-clang.debug.lib : uart_sci.obj (.text.UART_readCancelNoCB)
                  10272530    00000090                                                : uart_sci.obj (.text.UART_writeCancelNoCB)
                  102725c0    0000008e                                                : edma.obj (.text.EDMA_init)
                  1027264e    00000002     --HOLE-- [fill = 0]
                  10272650    0000008e     freertos.awr294x.r5f.ti-arm-clang.debug.lib : tasks.obj (.text.prvInitialiseTaskLists)
                  102726de    00000002     --HOLE-- [fill = 0]
                  102726e0    0000008c     drivers.awr294x.r5f.ti-arm-clang.debug.lib : edma.obj (.text.EDMA_enableTransferRegion)
                  1027276c    0000008c     libsysbm.a : close.c.obj (.text.close)
                  102727f8    00000008     --HOLE-- [fill = 0]
                  10272800    0000008c     main.o (.text.main)
                  1027288c    00000088     libc.a : fflush.c.obj (.text.__TI_doflush)
                  10272914    00000088            : _ltoa.c.obj (.text.__TI_ltoa)
                  1027299c    00000088            : _printfi.c.obj (.text._ecpy)
                  10272a24    0000000c     --HOLE-- [fill = 0]
                  10272a30    00000088     rl_driver.o (.text.rlDriverVerifyCRC)
                  10272ab8    00000008     --HOLE-- [fill = 0]
                  10272ac0    00000086     mmwave_fullcfg.o (.text.MMWave_getAdvChirpParams)
                  10272b46    0000000a     --HOLE-- [fill = 0]
                  10272b50    00000086     drivers.awr294x.r5f.ti-arm-clang.debug.lib : ipc_rpmsg.obj (.text.RPMessage_Params_init)
                  10272bd6    0000000a     --HOLE-- [fill = 0]
                  10272be0    00000086                                                : ipc_rpmsg.obj (.text.RPMessage_getEndPtMsg)
                  10272c66    0000000a     --HOLE-- [fill = 0]
                  10272c70    00000086     freertos.awr294x.r5f.ti-arm-clang.debug.lib : timers.obj (.text.prvInsertTimerInActiveList)
                  10272cf6    0000000a     --HOLE-- [fill = 0]
                  10272d00    00000086                                                 : timers.obj (.text.prvProcessTimerOrBlockTask)
                  10272d86    0000000a     --HOLE-- [fill = 0]
                  10272d90    00000086     rl_controller.o (.text.rlGetSubBlock)
                  10272e16    00000002     --HOLE-- [fill = 0]
                  10272e18    00000084     libsysbm.a : hostread.c.obj (.text.HOSTread)
                  10272e9c    00000084                : hostwrite.c.obj (.text.HOSTwrite)
                  10272f20    00000084     drivers.awr294x.r5f.ti-arm-clang.debug.lib : ipc_rpmsg.obj (.text.RPMessage_notifyCallback)
                  10272fa4    0000000c     --HOLE-- [fill = 0]
                  10272fb0    00000082                                                : edma.obj (.text.EDMA_allocDmaChannel)
                  10273032    0000000e     --HOLE-- [fill = 0]
                  10273040    00000082                                                : edma.obj (.text.EDMA_allocParam)
                  102730c2    0000000e     --HOLE-- [fill = 0]
                  102730d0    00000082                                                : edma.obj (.text.EDMA_allocTcc)
                  10273152    0000000e     --HOLE-- [fill = 0]
                  10273160    00000082                                                : edma.obj (.text.EDMA_enableTccInShadowRegRegion)
                  102731e2    0000000e     --HOLE-- [fill = 0]
                  102731f0    00000082                                                : soc_rcm.obj (.text.SOC_rcmGetFreq)
                  10273272    0000000e     --HOLE-- [fill = 0]
                  10273280    00000082     freertos.awr294x.r5f.ti-arm-clang.debug.lib : SemaphoreP_freertos.obj (.text.SemaphoreP_pend)
                  10273302    0000000e     --HOLE-- [fill = 0]
                  10273310    00000082                                                 : DebugP_log.obj (.text._DebugP_assert)
                  10273392    0000000e     --HOLE-- [fill = 0]
                  102733a0    00000082     rl_controller.o (.text.rlAppendSubBlock)
                  10273422    0000000e     --HOLE-- [fill = 0]
                  10273430    00000080     cli_mmwave.o (.text.CLI_MMWaveExtensionHandler)
                  102734b0    00000080     drivers.awr294x.r5f.ti-arm-clang.debug.lib : soc_rcm.obj (.text.SOC_rcmGetR5InFrequency)
                  10273530    00000080     libc.a : _printfi.c.obj (.text._pconv_f)
                  102735b0    0000007e     freertos.awr294x.r5f.ti-arm-clang.debug.lib : ClockP_freertos.obj (.text.ClockP_getTimeUsec)
                  1027362e    00000002     --HOLE-- [fill = 0]
                  10273630    0000007e     rl_driver.o (.text.rlDriverExecuteSetApi)
                  102736ae    00000002     --HOLE-- [fill = 0]
                  102736b0    0000007e     freertos.awr294x.r5f.ti-arm-clang.debug.lib : queue.obj (.text.xQueueTakeMutexRecursive)
                  1027372e    00000002     --HOLE-- [fill = 0]
                  10273730    0000007c     drivers.awr294x.r5f.ti-arm-clang.debug.lib : ipc_notify_v1.obj (.text.IpcNotify_mailboxReadSwQ)
                  102737ac    00000004     --HOLE-- [fill = 0]
                  102737b0    0000007c     libc.a : s_frexp.c.obj (.text.frexp)
                  1027382c    00000004     --HOLE-- [fill = 0]
                  10273830    0000007c     rl_device.o (.text.rlDeviceGetVersion)
                  102738ac    00000004     --HOLE-- [fill = 0]
                  102738b0    0000007c     freertos.awr294x.r5f.ti-arm-clang.debug.lib : queue.obj (.text.xQueueGiveMutexRecursive)
                  1027392c    00000004     --HOLE-- [fill = 0]
                  10273930    00000078     cli_mmwave.o (.text.CLI_MMWaveChannelCfg)
                  102739a8    00000008     --HOLE-- [fill = 0]
                  102739b0    00000078     cli_mmwave.o (.text.CLI_MMWaveSetLdoBypassConfig)
                  10273a28    00000078     libc.a : snprintf.c.obj (.text.snprintf)
                  10273aa0    00000078            : strtok.c.obj (.text.strtok)
                  10273b18    00000008     --HOLE-- [fill = 0]
                  10273b20    00000076     cli_mmwave.o (.text.CLI_MMWaveADCCfg)
                  10273b96    0000000a     --HOLE-- [fill = 0]
                  10273ba0    00000076     drivers.awr294x.r5f.ti-arm-clang.debug.lib : ipc_rpmsg_vring.obj (.text.RPMessage_vringIsFullRxBuf)
                  10273c16    0000000a     --HOLE-- [fill = 0]
                  10273c20    00000076                                                : uart_sci.obj (.text.UART_checkOpenParams)
                  10273c96    0000000a     --HOLE-- [fill = 0]
                  10273ca0    00000074     cli_mmwave.o (.text.CLI_MMWaveExtensionHelp)
                  10273d14    0000000c     --HOLE-- [fill = 0]
                  10273d20    00000072     drivers.awr294x.r5f.ti-arm-clang.debug.lib : edma.obj (.text.EDMA_clrMissEvtRegion)
                  10273d92    0000000e     --HOLE-- [fill = 0]
                  10273da0    00000072                                                : edma.obj (.text.EDMA_getTcErrorInfo)
                  10273e12    0000000e     --HOLE-- [fill = 0]
                  10273e20    00000072                                                : ipc_notify_v1.obj (.text.IpcNotify_makeMsg)
                  10273e92    0000000e     --HOLE-- [fill = 0]
                  10273ea0    0000006e     freertos.awr294x.r5f.ti-arm-clang.debug.lib : SemaphoreP_freertos.obj (.text.SemaphoreP_constructMutex)
                  10273f0e    00000002     --HOLE-- [fill = 0]
                  10273f10    0000006e                                                 : tasks.obj (.text.prvDeleteTCB)
                  10273f7e    00000002     --HOLE-- [fill = 0]
                  10273f80    0000006c     libsysbm.a : hostunlink.c.obj (.text.HOSTunlink)
                  10273fec    00000004     --HOLE-- [fill = 0]
                  10273ff0    0000006c     mmwave_listlib.o (.text.MMWave_listRemoveNode)
                  1027405c    00000004     --HOLE-- [fill = 0]
                  10274060    0000006c     R5F_0.o (.text.cli_setup)
                  102740cc    00000004     --HOLE-- [fill = 0]
                  102740d0    0000006c     rl_driver.o (.text.rlDriverCmdSendRetry)
                  1027413c    00000004     --HOLE-- [fill = 0]
                  10274140    0000006a     freertos.awr294x.r5f.ti-arm-clang.debug.lib : list.obj (.text.vListInsert)
                  102741aa    00000006     --HOLE-- [fill = 0]
                  102741b0    0000006a                                                 : tasks.obj (.text.vTaskDelay)
                  1027421a    00000006     --HOLE-- [fill = 0]
                  10274220    00000068     drivers.awr294x.r5f.ti-arm-clang.debug.lib : edma.obj (.text.EDMA_getBaseAddr)
                  10274288    00000068     libc.a : atoi.c.obj (.text.atoi)
                  102742f0    00000064     drivers.awr294x.r5f.ti-arm-clang.debug.lib : ipc_rpmsg.obj (.text.RPMessage_controlEndPtHandler)
                  10274354    0000000c     --HOLE-- [fill = 0]
                  10274360    00000064     freertos.awr294x.r5f.ti-arm-clang.debug.lib : TaskP_freertos.obj (.text.vApplicationLoadHook)
                  102743c4    0000000c     --HOLE-- [fill = 0]
                  102743d0    00000064                                                 : queue.obj (.text.vQueueWaitForMessageRestricted)
                  10274434    0000000c     --HOLE-- [fill = 0]
                  10274440    00000062     drivers.awr294x.r5f.ti-arm-clang.debug.lib : soc_rcm.obj (.text.SOC_rcmInsert16)
                  102744a2    0000000e     --HOLE-- [fill = 0]
                  102744b0    00000062     freertos.awr294x.r5f.ti-arm-clang.debug.lib : SemaphoreP_freertos.obj (.text.SemaphoreP_post)
                  10274512    0000000e     --HOLE-- [fill = 0]
                  10274520    00000062                                                 : tasks.obj (.text.vTaskPlaceOnEventListRestricted)
                  10274582    00000002     --HOLE-- [fill = 0]
                  10274584    00000060     libsysbm.a : hostclose.c.obj (.text.HOSTclose)
                  102745e4    00000060     libc.a : _printfi.c.obj (.text._fcpy)
                  10274644    0000000c     --HOLE-- [fill = 0]
                  10274650    00000060     R5F_0.o (.text.cmd_add)
                  102746b0    00000060     libc.a : vsnprintf.c.obj (.text.vsnprintf)
                  10274710    0000005e     drivers.awr294x.r5f.ti-arm-clang.debug.lib : ipc_rpmsg_vring.obj (.text.RPMessage_vringCheckEmptyTxBuf)
                  1027476e    00000002     --HOLE-- [fill = 0]
                  10274770    0000005c     cli.o (.text.CLI_write)
                  102747cc    00000004     --HOLE-- [fill = 0]
                  102747d0    0000005c     ti_power_clock_config.o (.text.Module_clockSetFrequency)
                  1027482c    00000004     --HOLE-- [fill = 0]
                  10274830    0000005a     freertos.awr294x.r5f.ti-arm-clang.debug.lib : tasks.obj (.text.prvCheckTasksWaitingTermination)
                  1027488a    00000002     --HOLE-- [fill = 0]
                  1027488c    00000058     libc.a : fopen.c.obj (.text.__TI_cleanup)
                  102748e4    00000058     libsysbm.a : trgmsg.c.obj (.text.__TI_readmsg)
                  1027493c    00000058                : trgmsg.c.obj (.text.__TI_writemsg)
                  10274994    00000058     libc.a : snprintf.c.obj (.text._outs)
                  102749ec    00000058            : vsnprintf.c.obj (.text._outs)
                  10274a44    0000000c     --HOLE-- [fill = 0]
                  10274a50    00000056     drivers.awr294x.r5f.ti-arm-clang.debug.lib : edma.obj (.text.EDMA_getHandle)
                  10274aa6    0000000a     --HOLE-- [fill = 0]
                  10274ab0    00000056     mmwave_listlib.o (.text.MMWave_listCat)
                  10274b06    0000000a     --HOLE-- [fill = 0]
                  10274b10    00000056     rl_driver.o (.text.rlDriverConstructInMsg)
                  10274b66    0000000a     --HOLE-- [fill = 0]
                  10274b70    00000054     drivers.awr294x.r5f.ti-arm-clang.debug.lib : edma.obj (.text.EDMA_setPaRAM)
                  10274bc4    0000000c     --HOLE-- [fill = 0]
                  10274bd0    00000054                                                : ipc_notify_v1.obj (.text.IpcNotify_getMemoryToWrite)
                  10274c24    0000000c     --HOLE-- [fill = 0]
                  10274c30    00000054                                                : soc_rcm.obj (.text.SOC_rcmGetModuleClkDivVal)
                  10274c84    00000054     libc.a : exit.c.obj (.text.exit)
                  10274cd8    00000054            : getdevice.c.obj (.text.finddevice)
                  10274d2c    00000004     --HOLE-- [fill = 0]
                  10274d30    00000054     freertos.awr294x.r5f.ti-arm-clang.debug.lib : queue.obj (.text.vQueueDelete)
                  10274d84    0000000c     --HOLE-- [fill = 0]
                  10274d90    00000054                                                 : queue.obj (.text.vQueueUnregisterQueue)
                  10274de4    00000054     libc.a : autoinit.c.obj (.text:__TI_auto_init_nobinit_nopinit)
                  10274e38    00000008     --HOLE-- [fill = 0]
                  10274e40    00000052     drivers.awr294x.r5f.ti-arm-clang.debug.lib : edma.obj (.text.EDMA_readIntrStatusRegion)
                  10274e92    0000000e     --HOLE-- [fill = 0]
                  10274ea0    00000052     mmwave.o (.text.MMWave_decodeError)
                  10274ef2    0000000e     --HOLE-- [fill = 0]
                  10274f00    00000052     drivers.awr294x.r5f.ti-arm-clang.debug.lib : pinmux.obj (.text.Pinmux_config)
                  10274f52    0000000e     --HOLE-- [fill = 0]
                  10274f60    00000052                                                : ipc_rpmsg.obj (.text.RPMessage_allocEndPtMsg)
                  10274fb2    0000000e     --HOLE-- [fill = 0]
                  10274fc0    00000052                                                : soc_rcm.obj (.text.SOC_rcmGetClkSrcFromClkSelVal)
                  10275012    0000000e     --HOLE-- [fill = 0]
                  10275020    00000052     freertos.awr294x.r5f.ti-arm-clang.debug.lib : queue.obj (.text.vQueueAddToRegistry)
                  10275072    0000000e     --HOLE-- [fill = 0]
                  10275080    00000052                                                 : tasks.obj (.text.vTaskPlaceOnEventList)
                  102750d2    0000000e     --HOLE-- [fill = 0]
                  102750e0    00000050     cli_mmwave.o (.text.CLI_MMWaveLowPowerCfg)
                  10275130    00000050     ti_drivers_open_close.o (.text.Drivers_edmaClose)
                  10275180    00000050     ti_drivers_open_close.o (.text.Drivers_uartClose)
                  102751d0    0000004e     cli_mmwave.o (.text.CLI_MMWaveFlushCfg)
                  1027521e    00000002     --HOLE-- [fill = 0]
                  10275220    0000004e     drivers.awr294x.r5f.ti-arm-clang.debug.lib : edma.obj (.text.EDMA_clrEvtRegion)
                  1027526e    00000002     --HOLE-- [fill = 0]
                  10275270    0000004e                                                : edma.obj (.text.EDMA_clrIntrRegion)
                  102752be    00000002     --HOLE-- [fill = 0]
                  102752c0    0000004e                                                : edma.obj (.text.EDMA_disableDmaEvtRegion)
                  1027530e    00000002     --HOLE-- [fill = 0]
                  10275310    0000004e                                                : edma.obj (.text.EDMA_disableEvtIntrRegion)
                  1027535e    00000002     --HOLE-- [fill = 0]
                  10275360    0000004e                                                : edma.obj (.text.EDMA_enableDmaEvtRegion)
                  102753ae    00000002     --HOLE-- [fill = 0]
                  102753b0    0000004e                                                : edma.obj (.text.EDMA_enableEvtIntrRegion)
                  102753fe    00000002     --HOLE-- [fill = 0]
                  10275400    0000004e                                                : edma.obj (.text.EDMA_getCcErrorInfo)
                  1027544e    00000002     --HOLE-- [fill = 0]
                  10275450    0000004e                                                : edma.obj (.text.EDMA_setEvtRegion)
                  1027549e    00000002     --HOLE-- [fill = 0]
                  102754a0    0000004e                                                : ipc_notify_v1.obj (.text.IpcNotify_getMemoryToRead)
                  102754ee    00000002     --HOLE-- [fill = 0]
                  102754f0    0000004c     cli_mmwave.o (.text.CLI_MMWaveExtensionInit)
                  1027553c    00000004     --HOLE-- [fill = 0]
                  10275540    0000004c     drivers.awr294x.r5f.ti-arm-clang.debug.lib : edma.obj (.text.EDMA_ccPaRAMEntry_init)
                  1027558c    00000004     --HOLE-- [fill = 0]
                  10275590    0000004c                                                : edma.obj (.text.EDMA_mapQdmaChToPaRAM)
                  102755dc    00000004     --HOLE-- [fill = 0]
                  102755e0    0000004c                                                : ipc_notify_v1.obj (.text.IpcNotify_getWriteMailbox)
                  1027562c    00000004     --HOLE-- [fill = 0]
                  10275630    0000004c                                                : ipc_notify_v1.obj (.text.IpcNotify_unregisterClient)
                  1027567c    00000004     --HOLE-- [fill = 0]
                  10275680    0000004c     ti_power_clock_config.o (.text.Module_clockEnable)
                  102756cc    00000004     --HOLE-- [fill = 0]
                  102756d0    0000004c     drivers.awr294x.r5f.ti-arm-clang.debug.lib : uart_sci.obj (.text.UART_Params_init)
                  1027571c    00000004     --HOLE-- [fill = 0]
                  10275720    0000004c                                                : uart_sci.obj (.text.UART_getHandle)
                  1027576c    0000004c     libc.a : memccpy.c.obj (.text.memccpy)
                  102757b8    00000008     --HOLE-- [fill = 0]
                  102757c0    0000004c     rl_driver.o (.text.rlDriverCalCRC)
                  1027580c    00000004     --HOLE-- [fill = 0]
                  10275810    0000004c     rl_driver.o (.text.rlDriverValidateHdr)
                  1027585c    00000004     --HOLE-- [fill = 0]
                  10275860    00000048     drivers.awr294x.r5f.ti-arm-clang.debug.lib : edma.obj (.text.EDMA_clearTcErrors)
                  102758a8    00000008     --HOLE-- [fill = 0]
                  102758b0    00000048                                                : mailbox.obj (.text.Mailbox_readCallback)
                  102758f8    00000008     --HOLE-- [fill = 0]
                  10275900    00000048                                                : ipc_rpmsg.obj (.text.RPMessage_queueGet)
                  10275948    00000008     --HOLE-- [fill = 0]
                  10275950    00000048     freertos.awr294x.r5f.ti-arm-clang.debug.lib : queue.obj (.text.prvInitialiseNewQueue)
                  10275998    00000008     --HOLE-- [fill = 0]
                  102759a0    00000048     rl_device.o (.text.rlDeviceGetMmWaveLinkVersion)
                  102759e8    00000008     --HOLE-- [fill = 0]
                  102759f0    00000048     rl_device.o (.text.rlDeviceGetMssVersion)
                  10275a38    00000048     libc.a : strcspn.c.obj (.text.strcspn)
                  10275a80    00000048     libsysbm.a : unlink.c.obj (.text.unlink)
                  10275ac8    00000008     --HOLE-- [fill = 0]
                  10275ad0    00000048     freertos.awr294x.r5f.ti-arm-clang.debug.lib : list.obj (.text.uxListRemove)
                  10275b18    00000008     --HOLE-- [fill = 0]
                  10275b20    00000046                                                 : DebugP_uartLogWriter.obj (.text.DebugP_uartLogWriterPutChar)
                  10275b66    0000000a     --HOLE-- [fill = 0]
                  10275b70    00000046     ti_dpl_config.o (.text.Dpl_init)
                  10275bb6    0000000a     --HOLE-- [fill = 0]
                  10275bc0    00000046     mmwave.o (.text.MMWave_encodeError)
                  10275c06    0000000a     --HOLE-- [fill = 0]
                  10275c10    00000046     drivers.awr294x.r5f.ti-arm-clang.debug.lib : mailbox_cfg.obj (.text.Mailbox_getRemoteCoreObj)
                  10275c56    0000000a     --HOLE-- [fill = 0]
                  10275c60    00000046                                                : ipc_rpmsg.obj (.text.RPMessage_freeEndPtMsg)
                  10275ca6    0000000a     --HOLE-- [fill = 0]
                  10275cb0    00000046                                                : ipc_rpmsg_vring.obj (.text.RPMessage_vringGetSize)
                  10275cf6    0000000a     --HOLE-- [fill = 0]
                  10275d00    00000046                                                : soc_rcm.obj (.text.SOC_rcmGetPeripheralClock)
                  10275d46    0000000a     --HOLE-- [fill = 0]
                  10275d50    00000046                                                : uart_sci.obj (.text.UART_rxChar)
                  10275d96    0000000a     --HOLE-- [fill = 0]
                  10275da0    00000046     freertos.awr294x.r5f.ti-arm-clang.debug.lib : tasks.obj (.text.vTaskExitCritical)
                  10275de6    0000000a     --HOLE-- [fill = 0]
                  10275df0    00000044     mmwave_listlib.o (.text.MMWave_listAdd)
                  10275e34    0000000c     --HOLE-- [fill = 0]
                  10275e40    00000044     drivers.awr294x.r5f.ti-arm-clang.debug.lib : soc_rcm.obj (.text.SOC_rcmExtract16)
                  10275e84    0000000c     --HOLE-- [fill = 0]
                  10275e90    00000044                                                : soc_rcm.obj (.text.SOC_rcmExtract8)
                  10275ed4    0000000c     --HOLE-- [fill = 0]
                  10275ee0    00000044                                                : soc_rcm.obj (.text.SOC_rcmMake16)
                  10275f24    0000000c     --HOLE-- [fill = 0]
                  10275f30    00000044                                                : uart_sci.obj (.text.UART_txChar)
                  10275f74    0000000c     --HOLE-- [fill = 0]
                  10275f80    00000044     freertos.awr294x.r5f.ti-arm-clang.debug.lib : printf.obj (.text._strnlen_s)
                  10275fc4    0000000c     --HOLE-- [fill = 0]
                  10275fd0    00000044                                                 : timers.obj (.text.prvSampleTimeNow)
                  10276014    0000000c     --HOLE-- [fill = 0]
                  10276020    00000044     rl_driver.o (.text.rlDriverFillPayload)
                  10276064    00000044     libc.a : strspn.c.obj (.text.strspn)
                  102760a8    00000008     --HOLE-- [fill = 0]
                  102760b0    00000042     drivers.awr294x.r5f.ti-arm-clang.debug.lib : ipc_notify_v1.obj (.text.IpcNotify_getReadDoneAckMailbox)
                  102760f2    0000000e     --HOLE-- [fill = 0]
                  10276100    00000042                                                : ipc_notify_v1.obj (.text.IpcNotify_mailboxWriteCustomIpcConfig)
                  10276142    0000000e     --HOLE-- [fill = 0]
                  10276150    00000042     mmwave_listlib.o (.text.MMWave_listRemove)
                  10276192    0000000e     --HOLE-- [fill = 0]
                  102761a0    00000042     freertos.awr294x.r5f.ti-arm-clang.debug.lib : queue.obj (.text.prvCopyDataFromQueue)
                  102761e2    0000000e     --HOLE-- [fill = 0]
                  102761f0    00000042     rl_sensor.o (.text.rlRfApllSynthBwCtlConfig)
                  10276232    0000000e     --HOLE-- [fill = 0]
                  10276240    00000042     rl_sensor.o (.text.rlRfSetLdoBypassConfig)
                  10276282    0000000e     --HOLE-- [fill = 0]
                  10276290    00000042     R5F_0.o (.text.send_to_core)
                  102762d2    0000000e     --HOLE-- [fill = 0]
                  102762e0    00000042     freertos.awr294x.r5f.ti-arm-clang.debug.lib : tasks.obj (.text.xTaskGetIdleTaskHandle)
                  10276322    0000000e     --HOLE-- [fill = 0]
                  10276330    00000040     ti_drivers_config.o (.text.IpcNotify_allocSwQueue)
                  10276370    00000040     drivers.awr294x.r5f.ti-arm-clang.debug.lib : soc_rcm.obj (.text.SOC_rcmExtract32)
                  102763b0    00000040     libc.a : memory.c.obj (.text.free_list_insert)
                  102763f0    00000040     freertos.awr294x.r5f.ti-arm-clang.debug.lib : timers.obj (.text.prvGetNextExpireTime)
                  10276430    0000003e     drivers.awr294x.r5f.ti-arm-clang.debug.lib : soc_rcm.obj (.text.SOC_rcmIsPadDisableRequired)
                  1027646e    00000002     --HOLE-- [fill = 0]
                  10276470    0000003e                                                : soc_rcm.obj (.text.SOC_rcmIsR5FInLockStepMode)
                  102764ae    00000002     --HOLE-- [fill = 0]
                  102764b0    0000003c     freertos.awr294x.r5f.ti-arm-clang.debug.lib : HeapP_freertos.obj (.text.HeapP_construct)
                  102764ec    00000004     --HOLE-- [fill = 0]
                  102764f0    0000003c     drivers.awr294x.r5f.ti-arm-clang.debug.lib : ipc_rpmsg.obj (.text.RPMessage_isLinuxCore)
                  1027652c    00000004     --HOLE-- [fill = 0]
                  10276530    0000003c                                                : ipc_rpmsg_vring.obj (.text.RPMessage_vringGetRxBufAddr)
                  1027656c    00000004     --HOLE-- [fill = 0]
                  10276570    0000003c                                                : ipc_rpmsg_vring.obj (.text.RPMessage_vringGetTxBufAddr)
                  102765ac    00000004     --HOLE-- [fill = 0]
                  102765b0    0000003c                                                : ipc_rpmsg_vring.obj (.text.RPMessage_vringGetTxBufLen)
                  102765ec    00000004     --HOLE-- [fill = 0]
                  102765f0    0000003c     freertos.awr294x.r5f.ti-arm-clang.debug.lib : tasks.obj (.text.prvResetNextTaskUnblockTime)
                  1027662c    00000004     --HOLE-- [fill = 0]
                  10276630    0000003c     rl_controller.o (.text.rlAppendDummy)
                  1027666c    00000004     --HOLE-- [fill = 0]
                  10276670    0000003a     freertos.awr294x.r5f.ti-arm-clang.debug.lib : printf.obj (.text._atoi)
                  102766aa    00000006     --HOLE-- [fill = 0]
                  102766b0    0000003a     rl_driver.o (.text.rlDriverShiftDWord)
                  102766ea    00000006     --HOLE-- [fill = 0]
                  102766f0    0000003a     freertos.awr294x.r5f.ti-arm-clang.debug.lib : list.obj (.text.vListInsertEnd)
                  1027672a    00000006     --HOLE-- [fill = 0]
                  10276730    00000038     drivers.awr294x.r5f.ti-arm-clang.debug.lib : edma.obj (.text.EDMA_qdmaClrMissEvtRegion)
                  10276768    00000008     --HOLE-- [fill = 0]
                  10276770    00000038                                                : ipc_notify_v1.obj (.text.IpcNotify_getReadSwQ)
                  102767a8    00000008     --HOLE-- [fill = 0]
                  102767b0    00000038     rl_driver.o (.text.rlDriverIsDeviceMapValid)
                  102767e8    00000008     --HOLE-- [fill = 0]
                  102767f0    00000038     freertos.awr294x.r5f.ti-arm-clang.debug.lib : tasks.obj (.text.xTaskGetSchedulerState)
                  10276828    00000008     --HOLE-- [fill = 0]
                  10276830    00000036     drivers.awr294x.r5f.ti-arm-clang.debug.lib : edma.obj (.text.EDMA_getRegionId)
                  10276866    0000000a     --HOLE-- [fill = 0]
                  10276870    00000036                                                : ipc_notify_v1.obj (.text.IpcNotify_syncCallback)
                  102768a6    0000000a     --HOLE-- [fill = 0]
                  102768b0    00000036                                                : ipc_rpmsg.obj (.text.RPMessage_controlEndPtInit)
                  102768e6    0000000a     --HOLE-- [fill = 0]
                  102768f0    00000036                                                : ipc_rpmsg.obj (.text.RPMessage_queuePut)
                  10276926    0000000a     --HOLE-- [fill = 0]
                  10276930    00000036                                                : uart_sci.obj (.text.UART_checkTransaction)
                  10276966    0000000a     --HOLE-- [fill = 0]
                  10276970    00000036     rl_sensor.o (.text.rlGetRfDieId)
                  102769a6    0000000a     --HOLE-- [fill = 0]
                  102769b0    00000034     freertos.awr294x.r5f.ti-arm-clang.debug.lib : TimerP_rti.obj (.text.TimerP_Params_init)
                  102769e4    00000034     libc.a : memory.c.obj (.text.free_list_remove)
                  10276a18    00000034     libsysbm.a : lseek.c.obj (.text.lseek)
                  10276a4c    00000004     --HOLE-- [fill = 0]
                  10276a50    00000034     rl_device.o (.text.rlDeviceGetRfVersion)
                  10276a84    0000000c     --HOLE-- [fill = 0]
                  10276a90    00000034     freertos.awr294x.r5f.ti-arm-clang.debug.lib : port.obj (.text.vPortTimerTickHandler)
                  10276ac4    00000034     libsysbm.a : write.c.obj (.text.write)
                  10276af8    00000008     --HOLE-- [fill = 0]
                  10276b00    00000032     freertos.awr294x.r5f.ti-arm-clang.debug.lib : ClockP_freertos.obj (.text.ClockP_timerTickIsr)
                  10276b32    0000000e     --HOLE-- [fill = 0]
                  10276b40    00000032     drivers.awr294x.r5f.ti-arm-clang.debug.lib : edma.obj (.text.HW_WR_FIELD32_RAW)
                  10276b72    0000000e     --HOLE-- [fill = 0]
                  10276b80    00000032                                                : ipc_notify_v1.obj (.text.IpcNotify_mailboxIsPendingIntr)
                  10276bb2    0000000e     --HOLE-- [fill = 0]
                  10276bc0    00000032                                                : ipc_notify_v1.obj (.text.IpcNotify_mailboxReadCustomIpcConfig)
                  10276bf2    0000000e     --HOLE-- [fill = 0]
                  10276c00    00000032     freertos.awr294x.r5f.ti-arm-clang.debug.lib : TimerP_rti.obj (.text.TimerP_getCount)
                  10276c32    0000000e     --HOLE-- [fill = 0]
                  10276c40    00000032                                                 : port.obj (.text.vApplicationStackOverflowHook)
                  10276c72    0000000e     --HOLE-- [fill = 0]
                  10276c80    00000032                                                 : tasks.obj (.text.vTaskEnterCritical)
                  10276cb2    0000000e     --HOLE-- [fill = 0]
                  10276cc0    00000032                                                 : queue.obj (.text.xQueueCreateMutexStatic)
                  10276cf2    0000000e     --HOLE-- [fill = 0]
                  10276d00    00000030     drivers.awr294x.r5f.ti-arm-clang.debug.lib : ipc_notify_v1.obj (.text.IpcNotify_getReadDoneMailbox)
                  10276d30    00000030                                                : ipc_notify_v1.obj (.text.IpcNotify_getReadMailbox)
                  10276d60    00000030     freertos.awr294x.r5f.ti-arm-clang.debug.lib : PmuP_armv7r_asm.obj (.text.pmu)
                  10276d90    0000002e     drivers.awr294x.r5f.ti-arm-clang.debug.lib : mailbox.obj (.text.Mailbox_isCoreEnabled)
                  10276dbe    00000002     --HOLE-- [fill = 0]
                  10276dc0    0000002e                                                : soc_rcm.obj (.text.SOC_rcmGetPeripheralClockFrequency)
                  10276dee    00000002     --HOLE-- [fill = 0]
                  10276df0    0000002e     freertos.awr294x.r5f.ti-arm-clang.debug.lib : printf.obj (.text._is_digit)
                  10276e1e    00000002     --HOLE-- [fill = 0]
                  10276e20    0000002e                                                 : queue.obj (.text.prvIsQueueFull)
                  10276e4e    00000002     --HOLE-- [fill = 0]
                  10276e50    0000002e                                                 : tasks.obj (.text.prvTaskCheckFreeStackSpace)
                  10276e7e    00000002     --HOLE-- [fill = 0]
                  10276e80    0000002e                                                 : list.obj (.text.vListInitialise)
                  10276eae    00000002     --HOLE-- [fill = 0]
                  10276eb0    0000002c                                                 : DebugP_log.obj (.text.DebugP_logZoneEnable)
                  10276edc    00000004     --HOLE-- [fill = 0]
                  10276ee0    0000002c     mmwave_fullcfg.o (.text.MMWave_internalDelChirp)
                  10276f0c    00000004     --HOLE-- [fill = 0]
                  10276f10    0000002c     ti_pinmux_config.o (.text.Pinmux_init)
                  10276f3c    00000004     --HOLE-- [fill = 0]
                  10276f40    0000002c     drivers.awr294x.r5f.ti-arm-clang.debug.lib : soc_rcm.obj (.text.SOC_rcmGetHSDivClkSrc)
                  10276f6c    00000004     --HOLE-- [fill = 0]
                  10276f70    0000002c                                                : soc_rcm.obj (.text.SOC_rcmGetR5Clock)
                  10276f9c    00000004     --HOLE-- [fill = 0]
                  10276fa0    0000002c     freertos.awr294x.r5f.ti-arm-clang.debug.lib : TaskP_freertos.obj (.text.TaskP_calcCounterDiff)
                  10276fcc    00000004     --HOLE-- [fill = 0]
                  10276fd0    0000002c     libclang_rt.builtins.a : divsi3.S.obj (.text.__divsi3)
                  10276ffc    0000002c     libc.a : snprintf.c.obj (.text._outc)
                  10277028    0000002c            : vsnprintf.c.obj (.text._outc)
                  10277054    0000000c     --HOLE-- [fill = 0]
                  10277060    0000002c     freertos.awr294x.r5f.ti-arm-clang.debug.lib : queue.obj (.text.prvInitialiseMutex)
                  1027708c    00000004     --HOLE-- [fill = 0]
                  10277090    0000002c                                                 : tasks.obj (.text.pvTaskIncrementMutexHeldCount)
                  102770bc    00000004     --HOLE-- [fill = 0]
                  102770c0    0000002c                                                 : port.obj (.text.vApplicationGetIdleTaskMemory)
                  102770ec    00000004     --HOLE-- [fill = 0]
                  102770f0    0000002c                                                 : port.obj (.text.vApplicationGetTimerTaskMemory)
                  1027711c    00000004     --HOLE-- [fill = 0]
                  10277120    0000002a     drivers.awr294x.r5f.ti-arm-clang.debug.lib : ipc_notify_v1.obj (.text.IpcNotify_isCoreEnabled)
                  1027714a    00000006     --HOLE-- [fill = 0]
                  10277150    0000002a                                                : ipc_rpmsg.obj (.text.RPMessage_putEndPtMsg)
                  1027717a    00000006     --HOLE-- [fill = 0]
                  10277180    0000002a     cli.o (.text.UART_Transaction_init)
                  102771aa    00000006     --HOLE-- [fill = 0]
                  102771b0    0000002a     freertos.awr294x.r5f.ti-arm-clang.debug.lib : DebugP_uartLogWriter.obj (.text.UART_Transaction_init)
                  102771da    00000006     --HOLE-- [fill = 0]
                  102771e0    00000028                                                 : CpuId_armv7r.obj (.text.CSL_armR5GetCpuID)
                  10277208    00000008     --HOLE-- [fill = 0]
                  10277210    00000028     drivers.awr294x.r5f.ti-arm-clang.debug.lib : ipc_notify_v1.obj (.text.IpcNotify_syncCustomIpcConfig)
                  10277238    00000008     --HOLE-- [fill = 0]
                  10277240    00000028     freertos.awr294x.r5f.ti-arm-clang.debug.lib : tasks.obj (.text.prvIdleTask)
                  10277268    00000008     --HOLE-- [fill = 0]
                  10277270    00000028                                                 : queue.obj (.text.prvIsQueueEmpty)
                  10277298    00000028     libc.a : _printfi.c.obj (.text.strchr)
                  102772c0    00000028     freertos.awr294x.r5f.ti-arm-clang.debug.lib : printf.obj (.text.vprintf_)
                  102772e8    00000008     --HOLE-- [fill = 0]
                  102772f0    00000026     drivers.awr294x.r5f.ti-arm-clang.debug.lib : edma.obj (.text.EDMA_disableQdmaEvtRegion)
                  10277316    0000000a     --HOLE-- [fill = 0]
                  10277320    00000026                                                : edma.obj (.text.EDMA_enableQdmaEvtRegion)
                  10277346    0000000a     --HOLE-- [fill = 0]
                  10277350    00000026                                                : edma.obj (.text.EDMA_getEnabledIntrHighRegion)
                  10277376    0000000a     --HOLE-- [fill = 0]
                  10277380    00000026                                                : edma.obj (.text.EDMA_getEnabledIntrRegion)
                  102773a6    0000000a     --HOLE-- [fill = 0]
                  102773b0    00000026                                                : edma.obj (.text.EDMA_getIntrStatusRegion)
                  102773d6    0000000a     --HOLE-- [fill = 0]
                  102773e0    00000026                                                : edma.obj (.text.EDMA_intrStatusHighGetRegion)
                  10277406    0000000a     --HOLE-- [fill = 0]
                  10277410    00000026                                                : edma.obj (.text.EDMA_validateIntrObject)
                  10277436    0000000a     --HOLE-- [fill = 0]
                  10277440    00000026     mmwave_fullcfg.o (.text.MMWave_internalDelAdvChirp)
                  10277466    0000000a     --HOLE-- [fill = 0]
                  10277470    00000026     mmwave_fullcfg.o (.text.MMWave_internalDelBpmChirp)
                  10277496    0000000a     --HOLE-- [fill = 0]
                  102774a0    00000026     mmwave_fullcfg.o (.text.MMWave_internalDelPhaseShiftChirp)
                  102774c6    0000000a     --HOLE-- [fill = 0]
                  102774d0    00000026     mmwave_fullcfg.o (.text.MMWave_internalDelProfile)
                  102774f6    0000000a     --HOLE-- [fill = 0]
                  10277500    00000026     freertos.awr294x.r5f.ti-arm-clang.debug.lib : queue.obj (.text.prvGetDisinheritPriorityAfterTimeout)
                  10277526    0000000a     --HOLE-- [fill = 0]
                  10277530    00000026     rl_driver.o (.text.rlDriverConstructOutMsg)
                  10277556    0000000a     --HOLE-- [fill = 0]
                  10277560    00000026     freertos.awr294x.r5f.ti-arm-clang.debug.lib : HeapP_internal.obj (.text.vHeapCreateStatic)
                  10277586    0000000a     --HOLE-- [fill = 0]
                  10277590    00000024     ti_drivers_config.o (.text.IpcNotify_getConfig)
                  102775b4    00000024     libclang_rt.builtins.a : aeabi_uldivmod.S.obj (.text.__aeabi_uldivmod)
                  102775d8    00000008     --HOLE-- [fill = 0]
                  102775e0    00000024     freertos.awr294x.r5f.ti-arm-clang.debug.lib : printf.obj (.text._out_char)
                  10277604    0000000c     --HOLE-- [fill = 0]
                  10277610    00000024                                                 : tasks.obj (.text.vTaskInternalSetTimeOutState)
                  10277634    0000000c     --HOLE-- [fill = 0]
                  10277640    00000022     drivers.awr294x.r5f.ti-arm-clang.debug.lib : edma.obj (.text.EDMA_channelToParamMap)
                  10277662    0000000e     --HOLE-- [fill = 0]
                  10277670    00000022                                                : soc_rcm.obj (.text.SOC_rcmGetFixedRootClkFout)
                  10277692    0000000e     --HOLE-- [fill = 0]
                  102776a0    00000020     freertos.awr294x.r5f.ti-arm-clang.debug.lib : ClockP_freertos.obj (.text.ClockP_usecToTicks)
                  102776c0    00000020                                                 : HeapP_freertos.obj (.text.HeapP_alloc)
                  102776e0    00000020     drivers.awr294x.r5f.ti-arm-clang.debug.lib : ipc_notify_v1_cfg.obj (.text.IpcNotify_wait)
                  10277700    00000020                                                : ipc_rpmsg.obj (.text.RPMessage_CreateParams_init)
                  10277720    00000020     freertos.awr294x.r5f.ti-arm-clang.debug.lib : heap_3.obj (.text.vPortFree)
                  10277740    00000020     libc.a : wcslen.c.obj (.text.wcslen)
                  10277760    0000001e     drivers.awr294x.r5f.ti-arm-clang.debug.lib : soc.obj (.text.SOC_moduleSetClockFrequency)
                  1027777e    00000002     --HOLE-- [fill = 0]
                  10277780    0000001e     freertos.awr294x.r5f.ti-arm-clang.debug.lib : timers.obj (.text.prvTimerTask)
                  1027779e    00000002     --HOLE-- [fill = 0]
                  102777a0    0000001e                                                 : port.obj (.text.xPortStartScheduler)
                  102777be    00000002     --HOLE-- [fill = 0]
                  102777c0    0000001e                                                 : tasks.obj (.text.xTaskGetTickCount)
                  102777de    00000002     --HOLE-- [fill = 0]
                  102777e0    0000001c     drivers.awr294x.r5f.ti-arm-clang.debug.lib : edma.obj (.text.EDMA_errIntrHighStatusGet)
                  102777fc    00000004     --HOLE-- [fill = 0]
                  10277800    0000001c                                                : edma.obj (.text.EDMA_getCCErrStatus)
                  1027781c    00000004     --HOLE-- [fill = 0]
                  10277820    0000001c                                                : edma.obj (.text.EDMA_getErrIntrStatus)
                  1027783c    00000004     --HOLE-- [fill = 0]
                  10277840    0000001c                                                : edma.obj (.text.EDMA_qdmaGetErrIntrStatus)
                  1027785c    00000004     --HOLE-- [fill = 0]
                  10277860    0000001c     freertos.awr294x.r5f.ti-arm-clang.debug.lib : HeapP_freertos.obj (.text.HeapP_free)
                  1027787c    00000004     --HOLE-- [fill = 0]
                  10277880    0000001c     ti_dpl_config.o (.text.putchar_)
                  1027789c    0000001c     libsysbm.a : hostrename.c.obj (.text.strcpy)
                  102778b8    0000001c     libc.a : _printfi.c.obj (.text.strlen)
                  102778d4    0000001c            : strlen.c.obj (.text.strlen)
                  102778f0    0000001c     libsysbm.a : hostrename.c.obj (.text.strlen)
                  1027790c    00000004     --HOLE-- [fill = 0]
                  10277910    0000001c     freertos.awr294x.r5f.ti-arm-clang.debug.lib : port.obj (.text.vPortYeildFromISR)
                  1027792c    0000001c     libc.a : memcpy32.S.obj (.text:TI_memcpy_small)
                  10277948    00000008     --HOLE-- [fill = 0]
                  10277950    00000018     drivers.awr294x.r5f.ti-arm-clang.debug.lib : soc_rcm.obj (.text.CSL_TopCtrl_readXtalFreqScale)
                  10277968    00000008     --HOLE-- [fill = 0]
                  10277970    00000018                                                : edma.obj (.text.EDMA_clrCCErr)
                  10277988    00000008     --HOLE-- [fill = 0]
                  10277990    00000018                                                : edma.obj (.text.EDMA_isInterruptEnabled)
                  102779a8    00000008     --HOLE-- [fill = 0]
                  102779b0    00000018                                                : ipc_notify_v1.obj (.text.IpcNotify_mailboxClearAllInt)
                  102779c8    00000008     --HOLE-- [fill = 0]
                  102779d0    00000018     mmwave_fullcfg.o (.text.MMWave_internalDelAdvChirpLUTData)
                  102779e8    00000008     --HOLE-- [fill = 0]
                  102779f0    00000018     freertos.awr294x.r5f.ti-arm-clang.debug.lib : TimerP_rti.obj (.text.TimerP_getReloadCount)
                  10277a08    00000008     --HOLE-- [fill = 0]
                  10277a10    00000018     drivers.awr294x.r5f.ti-arm-clang.debug.lib : uart_sci_edma.obj (.text.UART_disableRxDma)
                  10277a28    00000008     --HOLE-- [fill = 0]
                  10277a30    00000018                                                : uart_sci_edma.obj (.text.UART_enableRxDma)
                  10277a48    00000008     --HOLE-- [fill = 0]
                  10277a50    00000018     main.o (.text.freertos_main)
                  10277a68    00000018     libc.a : memset32.S.obj (.text:TI_memset_small)
                  10277a80    00000016     drivers.awr294x.r5f.ti-arm-clang.debug.lib : ipc_notify_v1.obj (.text.IpcNotify_registerNonNotifyCallback)
                  10277a96    0000000a     --HOLE-- [fill = 0]
                  10277aa0    00000016                                                : ipc_rpmsg_vring.obj (.text.RPMessage_align)
                  10277ab6    0000000a     --HOLE-- [fill = 0]
                  10277ac0    00000016                                                : soc.obj (.text.SOC_getSelfCpuClk)
                  10277ad6    0000000a     --HOLE-- [fill = 0]
                  10277ae0    00000016     freertos.awr294x.r5f.ti-arm-clang.debug.lib : SemaphoreP_freertos.obj (.text.SemaphoreP_destruct)
                  10277af6    0000000a     --HOLE-- [fill = 0]
                  10277b00    00000016                                                 : TimerP_rti.obj (.text.TimerP_start)
                  10277b16    0000000a     --HOLE-- [fill = 0]
                  10277b20    00000016                                                 : TimerP_rti.obj (.text.TimerP_stop)
                  10277b36    0000000a     --HOLE-- [fill = 0]
                  10277b40    00000014                                                 : DebugP_uartLogWriter.obj (.text.DebugP_uartSetDrvIndex)
                  10277b54    0000000c     --HOLE-- [fill = 0]
                  10277b60    00000014     drivers.awr294x.r5f.ti-arm-clang.debug.lib : ipc_notify_v1.obj (.text.IpcNotify_mailboxClearPendingIntr)
                  10277b74    0000000c     --HOLE-- [fill = 0]
                  10277b80    00000014                                                : soc_rcm.obj (.text.SOC_rcmGetModuleClkDivFromRegVal)
                  10277b94    0000000c     --HOLE-- [fill = 0]
                  10277ba0    00000014     freertos.awr294x.r5f.ti-arm-clang.debug.lib : TimerP_rti.obj (.text.TimerP_clearOverflowInt)
                  10277bb4    0000000c     --HOLE-- [fill = 0]
                  10277bc0    00000014     drivers.awr294x.r5f.ti-arm-clang.debug.lib : uart_sci.obj (.text.UART_rxIntrEnable)
                  10277bd4    0000000c     --HOLE-- [fill = 0]
                  10277be0    00000014                                                : uart_sci.obj (.text.UART_txIntrEnable)
                  10277bf4    0000000c     --HOLE-- [fill = 0]
                  10277c00    00000014     freertos.awr294x.r5f.ti-arm-clang.debug.lib : tasks.obj (.text.xTaskGetCurrentTaskHandle)
                  10277c14    0000000c     --HOLE-- [fill = 0]
                  10277c20    00000012     drivers.awr294x.r5f.ti-arm-clang.debug.lib : ipc_rpmsg.obj (.text.RPMessage_queueReset)
                  10277c32    0000000e     --HOLE-- [fill = 0]
                  10277c40    00000012     rl_controller.o (.text.rlGetSubBlockId)
                  10277c52    0000000e     --HOLE-- [fill = 0]
                  10277c60    00000012     rl_controller.o (.text.rlGetSubBlockLen)
                  10277c72    0000000e     --HOLE-- [fill = 0]
                  10277c80    00000012     freertos.awr294x.r5f.ti-arm-clang.debug.lib : port.obj (.text.uiPortGetRunTimeCounterValue)
                  10277c92    0000000e     --HOLE-- [fill = 0]
                  10277ca0    00000010                                                 : AddrTranslateP_null.obj (.text.AddrTranslateP_getLocalAddr)
                  10277cb0    00000010     drivers.awr294x.r5f.ti-arm-clang.debug.lib : pinmux.obj (.text.CSL_REG32_WR_RAW)
                  10277cc0    00000010                                                : soc.obj (.text.CSL_REG32_WR_RAW)
                  10277cd0    00000010     freertos.awr294x.r5f.ti-arm-clang.debug.lib : ClockP_freertos_r5.obj (.text.ClockP_getTimerCount)
                  10277ce0    00000010                                                 : ClockP_freertos_r5.obj (.text.ClockP_timerClearOverflowInt)
                  10277cf0    00000010     drivers.awr294x.r5f.ti-arm-clang.debug.lib : edma.obj (.text.HW_RD_REG32_RAW)
                  10277d00    00000010                                                : edma.obj (.text.HW_WR_REG32_RAW)
                  10277d10    00000010                                                : ipc_notify_v1.obj (.text.IpcNotify_mailboxGetPendingIntr)
                  10277d20    00000010                                                : soc.obj (.text.SOC_moduleClockEnable)
                  10277d30    00000010                                                : uart_sci_edma.obj (.text.UART_disableTxDma)
                  10277d40    00000010                                                : uart_sci_edma.obj (.text.UART_enableTxDma)
                  10277d50    00000010                                                : uart_sci.obj (.text.UART_isRxIntrEnabled)
                  10277d60    00000010                                                : uart_sci.obj (.text.UART_isRxRdy)
                  10277d70    00000010                                                : uart_sci.obj (.text.UART_isTxIntrEnabled)
                  10277d80    00000010                                                : uart_sci.obj (.text.UART_isTxRdy)
                  10277d90    00000010                                                : uart_sci.obj (.text.UART_rxIntrDisable)
                  10277da0    00000010                                                : uart_sci.obj (.text.UART_txIntrDisable)
                  10277db0    00000010     libclang_rt.builtins.a : aeabi_memset.S.obj (.text.__aeabi_memset)
                  10277dc0    00000010     freertos.awr294x.r5f.ti-arm-clang.debug.lib : printf.obj (.text._out_null)
                  10277dd0    00000010     libc.a : fputc.c.obj (.text.putchar)
                  10277de0    00000010     freertos.awr294x.r5f.ti-arm-clang.debug.lib : tasks.obj (.text.vTaskSuspendAll)
                  10277df0    0000000e     drivers.awr294x.r5f.ti-arm-clang.debug.lib : ipc_notify_v1.obj (.text.IpcNotify_isCustomIpcConfigEnabled)
                  10277dfe    00000002     --HOLE-- [fill = 0]
                  10277e00    0000000e                                                : mailbox.obj (.text.Mailbox_Params_init)
                  10277e0e    00000002     --HOLE-- [fill = 0]
                  10277e10    0000000e     rl_driver.o (.text.rlDriverGetPlatformId)
                  10277e1e    00000002     --HOLE-- [fill = 0]
                  10277e20    0000000e     freertos.awr294x.r5f.ti-arm-clang.debug.lib : list.obj (.text.vListInitialiseItem)
                  10277e2e    00000002     --HOLE-- [fill = 0]
                  10277e30    0000000e                                                 : tasks.obj (.text.vTaskMissedYield)
                  10277e3e    00000002     --HOLE-- [fill = 0]
                  10277e40    0000000c     ti_board_open_close.o (.text.Board_driversOpen)
                  10277e4c    00000004     --HOLE-- [fill = 0]
                  10277e50    0000000c     ti_drivers_open_close.o (.text.Drivers_open)
                  10277e5c    00000004     --HOLE-- [fill = 0]
                  10277e60    0000000c     drivers.awr294x.r5f.ti-arm-clang.debug.lib : ipc_notify_v1.obj (.text.IpcNotify_getSelfCoreId)
                  10277e6c    00000004     --HOLE-- [fill = 0]
                  10277e70    0000000c     mmwave_listlib.o (.text.MMWave_listGetHead)
                  10277e7c    00000004     --HOLE-- [fill = 0]
                  10277e80    0000000c     mmwave_listlib.o (.text.MMWave_listGetNext)
                  10277e8c    00000004     --HOLE-- [fill = 0]
                  10277e90    0000000c     ti_power_clock_config.o (.text.PowerClock_init)
                  10277e9c    00000004     --HOLE-- [fill = 0]
                  10277ea0    0000000c     libc.a : strcmp32.S.obj (.text)
                  10277eac    00000004     --HOLE-- [fill = 0]
                  10277eb0    0000000a     freertos.awr294x.r5f.ti-arm-clang.debug.lib : HwiP_armv7r_vim.obj (.text.Hwip_dataAndInstructionBarrier)
                  10277eba    00000006     --HOLE-- [fill = 0]
                  10277ec0    0000000a     drivers.awr294x.r5f.ti-arm-clang.debug.lib : ipc_notify_v1.obj (.text.IpcNotify_dataAndInstructionBarrier)
                  10277eca    00000006     --HOLE-- [fill = 0]
                  10277ed0    0000000a                                                : ipc_rpmsg_vring.obj (.text.IpcRpMsg_dataAndInstructionBarrier)
                  10277eda    00000006     --HOLE-- [fill = 0]
                  10277ee0    0000000a     freertos.awr294x.r5f.ti-arm-clang.debug.lib : port.obj (.text.prvTaskExitError)
                  10277eea    00000006     --HOLE-- [fill = 0]
                  10277ef0    0000000a     rl_driver.o (.text.rlDriverGetHandle)
                  10277efa    00000006     --HOLE-- [fill = 0]
                  10277f00    0000000a     freertos.awr294x.r5f.ti-arm-clang.debug.lib : port.obj (.text.vApplicationIdleHook)
                  10277f0a    00000006     --HOLE-- [fill = 0]
                  10277f10    00000008     drivers.awr294x.r5f.ti-arm-clang.debug.lib : soc_rcm.obj (.text.CSL_MSS_CTRL_getBaseAddress)
                  10277f18    00000008     --HOLE-- [fill = 0]
                  10277f20    00000008                                                : soc_rcm.obj (.text.CSL_TopCtrl_getBaseAddress)
                  10277f28    00000008     --HOLE-- [fill = 0]
                  10277f30    00000008     freertos.awr294x.r5f.ti-arm-clang.debug.lib : ClockP_freertos.obj (.text.ClockP_getTicks)
                  10277f38    00000008     --HOLE-- [fill = 0]
                  10277f40    00000006     drivers.awr294x.r5f.ti-arm-clang.debug.lib : soc_rcm.obj (.text.CSL_DSSRCM_getBaseAddress)
                  10277f46    0000000a     --HOLE-- [fill = 0]
                  10277f50    00000006                                                : soc_rcm.obj (.text.CSL_RCM_getBaseAddress)
                  10277f56    0000000a     --HOLE-- [fill = 0]
                  10277f60    00000006                                                : soc_rcm.obj (.text.CSL_TopRCM_getBaseAddress)
                  10277f66    0000000a     --HOLE-- [fill = 0]
                  10277f70    00000004     freertos.awr294x.r5f.ti-arm-clang.debug.lib : TaskP_freertos.obj (.text.TaskP_yield)
                  10277f74    0000000c     --HOLE-- [fill = 0]
                  10277f80    00000002     ti_board_config.o (.text.Board_init)
                  10277f82    0000000e     --HOLE-- [fill = 0]
                  10277f90    00000002     freertos.awr294x.r5f.ti-arm-clang.debug.lib : port.obj (.text.vPortConfigTimerForRunTimeStats)
                  10277f92    0000000e     --HOLE-- [fill = 0]
                  10277fa0    00000002                                                 : port.obj (.text.vPortValidateInterruptPriority)
                  10277fa2    0000001e     --HOLE-- [fill = 0]

.rodata    0    10277fc0    000034b0     
                  10277fc0    00000188     drivers.awr294x.r5f.ti-arm-clang.debug.lib : soc_rcm.obj (.rodata.gSocRcmADPLLJConfigTbl)
                  10278148    00000152     cli_mmwave.o (.rodata.str1.18311897345692095285.1)
                  1027829a    00000006     drivers.awr294x.r5f.ti-arm-clang.debug.lib : soc_rcm.obj (.rodata.str1.6883917863849351830.1)
                  102782a0    00000101     libc.a : aeabi_ctype.S.obj (.rodata:__aeabi_ctype_table_)
                  102783a1    000000cb     cli_mmwave.o (.rodata.str1.14542884029421051582.1)
                  1027846c    000000a7     cli_mmwave.o (.rodata.str1.15385791986643563855.1)
                  10278513    00000085     cli_mmwave.o (.rodata.str1.18114414366373374058.1)
                  10278598    00000082     freertos.awr294x.r5f.ti-arm-clang.debug.lib : tasks.obj (.rodata.str1.4565613428165196872.1)
                  1027861a    00000005     drivers.awr294x.r5f.ti-arm-clang.debug.lib : soc_rcm.obj (.rodata.gSocRcmR5ClkSrcInfoMap)
                  1027861f    00000001     --HOLE-- [fill = 0]
                  10278620    00000080     libc.a : strtod.c.obj (.rodata.digits)
                  102786a0    00000080     cli_mmwave.o (.rodata.str1.1977820273306201886.1)
                  10278720    0000007f     drivers.awr294x.r5f.ti-arm-clang.debug.lib : ipc_rpmsg.obj (.rodata.str1.7723343948726634474.1)
                  1027879f    0000007c                                                : ipc_rpmsg.obj (.rodata.str1.882666447729012844.1)
                  1027881b    0000007a     cli_mmwave.o (.rodata.str1.3748789244490257340.1)
                  10278895    00000075     drivers.awr294x.r5f.ti-arm-clang.debug.lib : ipc_rpmsg.obj (.rodata.str1.2083685040620277556.1)
                  1027890a    00000002     --HOLE-- [fill = 0]
                  1027890c    00000074     ti_dpl_config.o (.rodata.cfg)
                  10278980    00000073     drivers.awr294x.r5f.ti-arm-clang.debug.lib : ipc_rpmsg.obj (.rodata.str1.17585504750102706928.1)
                  102789f3    0000006f                                                : ipc_rpmsg.obj (.rodata.str1.7933235615949331309.1)
                  10278a62    0000006b     freertos.awr294x.r5f.ti-arm-clang.debug.lib : queue.obj (.rodata.str1.9511296674868437406.1)
                  10278acd    00000069     drivers.awr294x.r5f.ti-arm-clang.debug.lib : soc_rcm.obj (.rodata.gSocRcmClkSrcInfoMap)
                  10278b36    00000069     cli_mmwave.o (.rodata.str1.12424279668093559494.1)
                  10278b9f    00000065     freertos.awr294x.r5f.ti-arm-clang.debug.lib : queue.obj (.rodata.str1.6603158521343292237.1)
                  10278c04    00000064     drivers.awr294x.r5f.ti-arm-clang.debug.lib : ipc_rpmsg.obj (.rodata.str1.14097889213147046469.1)
                  10278c68    00000063                                                : ipc_rpmsg.obj (.rodata.str1.2212735509010662771.1)
                  10278ccb    00000062     freertos.awr294x.r5f.ti-arm-clang.debug.lib : queue.obj (.rodata.str1.4808098962482247512.1)
                  10278d2d    0000005f     cli_mmwave.o (.rodata.str1.15462772370801541704.1)
                  10278d8c    0000005f     freertos.awr294x.r5f.ti-arm-clang.debug.lib : queue.obj (.rodata.str1.8056268586134868364.1)
                  10278deb    0000005d                                                 : queue.obj (.rodata.str1.14947700358493181700.1)
                  10278e48    0000005c                                                 : ClockP_freertos_r5.obj (.rodata.str1.17223520836534051513.1)
                  10278ea4    0000005a     cli_mmwave.o (.rodata.str1.14486755409105419988.1)
                  10278efe    00000059     freertos.awr294x.r5f.ti-arm-clang.debug.lib : queue.obj (.rodata.str1.13478403849926902207.1)
                  10278f57    00000057     cli_mmwave.o (.rodata.str1.5047472133597142491.1)
                  10278fae    00000056     cli_mmwave.o (.rodata.str1.16050311820743208307.1)
                  10279004    00000052     mmwave_fullcfg.o (.rodata.str1.4336280728154145172.1)
                  10279056    00000051     mmwave_fullcfg.o (.rodata.str1.13820828819380407218.1)
                  102790a7    00000001     --HOLE-- [fill = 0]
                  102790a8    00000050     freertos.awr294x.r5f.ti-arm-clang.debug.lib : printf.obj (.rodata._ftoa.pow10)
                  102790f8    0000004f                                                 : tasks.obj (.rodata.str1.16921125101802676652.1)
                  10279147    0000004d     cli_mmwave.o (.rodata.str1.14628984435811985433.1)
                  10279194    0000004a     freertos.awr294x.r5f.ti-arm-clang.debug.lib : queue.obj (.rodata.str1.1958022410542202588.1)
                  102791de    0000004a                                                 : queue.obj (.rodata.str1.9461746748575326763.1)
                  10279228    00000049     cli_mmwave.o (.rodata.str1.7977438297449738053.1)
                  10279271    00000007     cli_mmwave.o (.rodata.str1.12141972185632243162.1)
                  10279278    00000048     libc.a : strtod.c.obj (.rodata.powerof10)
                  102792c0    00000047     freertos.awr294x.r5f.ti-arm-clang.debug.lib : HeapP_internal.obj (.rodata.str1.3170830659246393600.1)
                  10279307    00000046     cli_mmwave.o (.rodata.str1.4721375024987270817.1)
                  1027934d    00000045     cli_mmwave.o (.rodata.str1.4149452231973311676.1)
                  10279392    00000045     cli_mmwave.o (.rodata.str1.8591575932379089736.1)
                  102793d7    00000044     cli_mmwave.o (.rodata.str1.10563472390834983834.1)
                  1027941b    00000044     cli_mmwave.o (.rodata.str1.4732767151076820174.1)
                  1027945f    00000042     freertos.awr294x.r5f.ti-arm-clang.debug.lib : HeapP_internal.obj (.rodata.str1.17348475344641549289.1)
                  102794a1    00000040     drivers.awr294x.r5f.ti-arm-clang.debug.lib : ipc_notify_v1.obj (.rodata.str1.10118846006578224169.1)
                  102794e1    0000003f     freertos.awr294x.r5f.ti-arm-clang.debug.lib : port.obj (.rodata.str1.2008661137458711816.1)
                  10279520    0000003f     mmwave_fullcfg.o (.rodata.str1.3275714349791440636.1)
                  1027955f    0000003f     cli_mmwave.o (.rodata.str1.6566307248252995987.1)
                  1027959e    0000003f     cli_mmwave.o (.rodata.str1.7492578541381659950.1)
                  102795dd    0000003e     cli_mmwave.o (.rodata.str1.11304226086015791674.1)
                  1027961b    0000003e     freertos.awr294x.r5f.ti-arm-clang.debug.lib : tasks.obj (.rodata.str1.9787755677095343714.1)
                  10279659    0000003d                                                 : TimerP_rti.obj (.rodata.str1.8636677665714190513.1)
                  10279696    0000003c     cli_mmwave.o (.rodata.str1.4235368857088781838.1)
                  102796d2    0000003b     cli_mmwave.o (.rodata.str1.4349015077783226720.1)
                  1027970d    0000003a     cli_mmwave.o (.rodata.str1.17825516229064431916.1)
                  10279747    00000039     freertos.awr294x.r5f.ti-arm-clang.debug.lib : queue.obj (.rodata.str1.12742486800848623484.1)
                  10279780    00000038     cli.o (.rodata.str1.14995342612420565482.1)
                  102797b8    00000038     cli_mmwave.o (.rodata.str1.18086552417765266463.1)
                  102797f0    00000038     freertos.awr294x.r5f.ti-arm-clang.debug.lib : HeapP_internal.obj (.rodata.str1.8254785031303792770.1)
                  10279828    00000037                                                 : SemaphoreP_freertos.obj (.rodata.str1.10588615791740875997.1)
                  1027985f    00000035     drivers.awr294x.r5f.ti-arm-clang.debug.lib : ipc_rpmsg.obj (.rodata.str1.12490517295006761435.1)
                  10279894    00000035     ti_drivers_open_close.o (.rodata.str1.7750254725308216577.1)
                  102798c9    00000035     ti_drivers_open_close.o (.rodata.str1.871795152488895636.1)
                  102798fe    00000034     cli_mmwave.o (.rodata.str1.16380125119128412985.1)
                  10279932    00000032     cli_mmwave.o (.rodata.str1.12225319706087411759.1)
                  10279964    00000031     freertos.awr294x.r5f.ti-arm-clang.debug.lib : timers.obj (.rodata.str1.4254626211159867211.1)
                  10279995    00000030     cli_mmwave.o (.rodata.str1.15822187872718380365.1)
                  102799c5    00000030     cli_mmwave.o (.rodata.str1.8028941206055778042.1)
                  102799f5    0000002f     drivers.awr294x.r5f.ti-arm-clang.debug.lib : ipc_notify_v1.obj (.rodata.str1.9418228565027791152.1)
                  10279a24    0000002e     freertos.awr294x.r5f.ti-arm-clang.debug.lib : tasks.obj (.rodata.str1.3110018549871327945.1)
                  10279a52    0000002e                                                 : queue.obj (.rodata.str1.3762774476990514498.1)
                  10279a80    0000002e                                                 : HeapP_internal.obj (.rodata.str1.5483409624344238287.1)
                  10279aae    0000002e     drivers.awr294x.r5f.ti-arm-clang.debug.lib : ipc_notify_v1_cfg.obj (.rodata.str1.9333447753637572630.1)
                  10279adc    0000002d                                                : soc_rcm.obj (.rodata.str1.13371245503524111651.1)
                  10279b09    0000002c     cli_mmwave.o (.rodata.str1.14949725271278473252.1)
                  10279b35    0000002c     freertos.awr294x.r5f.ti-arm-clang.debug.lib : HeapP_freertos.obj (.rodata.str1.4078423860942452349.1)
                  10279b61    0000002c     cli_mmwave.o (.rodata.str1.5933634846743376885.1)
                  10279b8d    0000002a     cli_mmwave.o (.rodata.str1.11796875616475831266.1)
                  10279bb7    0000002a     freertos.awr294x.r5f.ti-arm-clang.debug.lib : queue.obj (.rodata.str1.13415653334365632560.1)
                  10279be1    0000002a                                                 : queue.obj (.rodata.str1.18282543359674176480.1)
                  10279c0b    0000002a                                                 : DebugP_log.obj (.rodata.str1.227947788441500939.1)
                  10279c35    0000002a     cli.o (.rodata.str1.4332005718596899563.1)
                  10279c5f    00000029     cli_mmwave.o (.rodata.str1.1530673253857759337.1)
                  10279c88    00000029     cli_mmwave.o (.rodata.str1.15994588299634707906.1)
                  10279cb1    00000029     drivers.awr294x.r5f.ti-arm-clang.debug.lib : soc_rcm.obj (.rodata.str1.5389960437019493790.1)
                  10279cda    00000029     freertos.awr294x.r5f.ti-arm-clang.debug.lib : tasks.obj (.rodata.str1.9328102173130631220.1)
                  10279d03    00000001     --HOLE-- [fill = 0]
                  10279d04    00000028     drivers.awr294x.r5f.ti-arm-clang.debug.lib : soc_rcm.obj (.rodata.gSocRcmFixedClocksTbl)
                  10279d2c    00000028     freertos.awr294x.r5f.ti-arm-clang.debug.lib : queue.obj (.rodata.str1.12125964304638706974.1)
                  10279d54    00000028     cli_mmwave.o (.rodata.str1.13062615557849255394.1)
                  10279d7c    00000028     mmwave_fullcfg.o (.rodata.str1.17936862261095651424.1)
                  10279da4    00000027     cli_mmwave.o (.rodata.str1.18071803714066075707.1)
                  10279dcb    00000027     freertos.awr294x.r5f.ti-arm-clang.debug.lib : ClockP_freertos_r5.obj (.rodata.str1.4964156252153506440.1)
                  10279df2    00000027                                                 : queue.obj (.rodata.str1.5896517509531954562.1)
                  10279e19    00000027     mmwave_fullcfg.o (.rodata.str1.6930629886270078228.1)
                  10279e40    00000027     freertos.awr294x.r5f.ti-arm-clang.debug.lib : tasks.obj (.rodata.str1.8086631624469926375.1)
                  10279e67    00000026                                                 : HeapP_internal.obj (.rodata.str1.13954379080693783283.1)
                  10279e8d    00000026                                                 : tasks.obj (.rodata.str1.2823620137245587142.1)
                  10279eb3    00000026     cli_mmwave.o (.rodata.str1.7004100125272981186.1)
                  10279ed9    00000025     R5F_0.o (.rodata.str1.12077400176345644725.1)
                  10279efe    00000025     freertos.awr294x.r5f.ti-arm-clang.debug.lib : queue.obj (.rodata.str1.1299805873427833789.1)
                  10279f23    00000025                                                 : tasks.obj (.rodata.str1.16123424699167936419.1)
                  10279f48    00000025     cli_mmwave.o (.rodata.str1.16308837492625385113.1)
                  10279f6d    00000024     cli_mmwave.o (.rodata.str1.11024742342798136645.1)
                  10279f91    00000024     drivers.awr294x.r5f.ti-arm-clang.debug.lib : edma.obj (.rodata.str1.11535555375892780929.1)
                  10279fb5    00000024     main.o (.rodata.str1.17100691992556644108.1)
                  10279fd9    00000024     freertos.awr294x.r5f.ti-arm-clang.debug.lib : tasks.obj (.rodata.str1.7264671426540837297.1)
                  10279ffd    00000023     cli.o (.rodata.str1.12144693384940245165.1)
                  1027a020    00000023     cli_mmwave.o (.rodata.str1.15873129065139306394.1)
                  1027a043    00000023     freertos.awr294x.r5f.ti-arm-clang.debug.lib : ClockP_freertos_r5.obj (.rodata.str1.5485111591584040388.1)
                  1027a066    00000022                                                 : tasks.obj (.rodata.str1.12539733791578942966.1)
                  1027a088    00000022                                                 : TimerP_rti.obj (.rodata.str1.4081825994417204303.1)
                  1027a0aa    00000022                                                 : tasks.obj (.rodata.str1.8073734311353135185.1)
                  1027a0cc    00000021                                                 : SemaphoreP_freertos.obj (.rodata.str1.11155737773773580205.1)
                  1027a0ed    00000021                                                 : tasks.obj (.rodata.str1.1908087408565297158.1)
                  1027a10e    00000021                                                 : tasks.obj (.rodata.str1.6403908046155279103.1)
                  1027a12f    00000021                                                 : ClockP_freertos_r5.obj (.rodata.str1.7035350789661265746.1)
                  1027a150    00000021     cli_mmwave.o (.rodata.str1.998412875667737083.1)
                  1027a171    00000020     cli_mmwave.o (.rodata.str1.10276974035633179477.1)
                  1027a191    00000020     freertos.awr294x.r5f.ti-arm-clang.debug.lib : HeapP_internal.obj (.rodata.str1.11821762724098783345.1)
                  1027a1b1    00000020     drivers.awr294x.r5f.ti-arm-clang.debug.lib : ipc_notify_v1.obj (.rodata.str1.2046905611612007019.1)
                  1027a1d1    00000020     freertos.awr294x.r5f.ti-arm-clang.debug.lib : tasks.obj (.rodata.str1.2251723265452542394.1)
                  1027a1f1    00000020     cli_mmwave.o (.rodata.str1.2453485280756525337.1)
                  1027a211    0000001f     drivers.awr294x.r5f.ti-arm-clang.debug.lib : ipc_rpmsg_vring.obj (.rodata.str1.14997963732428335466.1)
                  1027a230    0000001f     freertos.awr294x.r5f.ti-arm-clang.debug.lib : ClockP_freertos_r5.obj (.rodata.str1.17653911837062842281.1)
                  1027a24f    0000001f     drivers.awr294x.r5f.ti-arm-clang.debug.lib : soc_rcm.obj (.rodata.str1.4312025440500206638.1)
                  1027a26e    0000001f     cli_mmwave.o (.rodata.str1.6252895717020053640.1)
                  1027a28d    0000001e     freertos.awr294x.r5f.ti-arm-clang.debug.lib : tasks.obj (.rodata.str1.12993397357195243110.1)
                  1027a2ab    0000001e     drivers.awr294x.r5f.ti-arm-clang.debug.lib : ipc_notify_v1.obj (.rodata.str1.16593710740832512674.1)
                  1027a2c9    0000001e     freertos.awr294x.r5f.ti-arm-clang.debug.lib : port.obj (.rodata.str1.8643037410225090959.1)
                  1027a2e7    0000001e     drivers.awr294x.r5f.ti-arm-clang.debug.lib : ipc_notify_v1.obj (.rodata.str1.9050127465416171240.1)
                  1027a305    0000001d     freertos.awr294x.r5f.ti-arm-clang.debug.lib : TimerP_rti.obj (.rodata.str1.16072626274289208570.1)
                  1027a322    0000001d                                                 : TimerP_rti.obj (.rodata.str1.3969290967820031423.1)
                  1027a33f    0000001c                                                 : HeapP_freertos.obj (.rodata.str1.1035298491135892163.1)
                  1027a35b    0000001c     drivers.awr294x.r5f.ti-arm-clang.debug.lib : ipc_notify_v1_cfg.obj (.rodata.str1.264689326032831299.1)
                  1027a377    0000001c                                                : soc_rcm.obj (.rodata.str1.2910804700986057146.1)
                  1027a393    0000001c     cli.o (.rodata.str1.335370688608028233.1)
                  1027a3af    0000001c     cli_mmwave.o (.rodata.str1.3716873453931016529.1)
                  1027a3cb    0000001c     drivers.awr294x.r5f.ti-arm-clang.debug.lib : ipc_rpmsg_vring.obj (.rodata.str1.6129980899926192174.1)
                  1027a3e7    0000001c     freertos.awr294x.r5f.ti-arm-clang.debug.lib : ClockP_freertos_r5.obj (.rodata.str1.6936306138937714152.1)
                  1027a403    0000001b                                                 : SemaphoreP_freertos.obj (.rodata.str1.11544067228989255202.1)
                  1027a41e    0000001b                                                 : timers.obj (.rodata.str1.16001437261817787019.1)
                  1027a439    0000001b                                                 : tasks.obj (.rodata.str1.16487631963213850555.1)
                  1027a454    0000001b     drivers.awr294x.r5f.ti-arm-clang.debug.lib : soc_rcm.obj (.rodata.str1.16607280105437489952.1)
                  1027a46f    0000001b     ti_drivers_config.o (.rodata.str1.7767457247551078139.1)
                  1027a48a    0000001a     drivers.awr294x.r5f.ti-arm-clang.debug.lib : soc_rcm.obj (.rodata.gSocRcmCpswClkSrcValMap)
                  1027a4a4    0000001a                                                : soc_rcm.obj (.rodata.gSocRcmCptsClkSrcValMap)
                  1027a4be    0000001a                                                : soc_rcm.obj (.rodata.gSocRcmCsiRxClkSrcValMap)
                  1027a4d8    0000001a                                                : soc_rcm.obj (.rodata.gSocRcmDssHwaClkSrcValMap)
                  1027a4f2    0000001a                                                : soc_rcm.obj (.rodata.gSocRcmDssRtiClkSrcValMap)
                  1027a50c    0000001a                                                : soc_rcm.obj (.rodata.gSocRcmDssSciClkSrcValMap)
                  1027a526    0000001a                                                : soc_rcm.obj (.rodata.gSocRcmI2CClkSrcValMap)
                  1027a540    0000001a                                                : soc_rcm.obj (.rodata.gSocRcmMcanClkSrcValMap)
                  1027a55a    0000001a                                                : soc_rcm.obj (.rodata.gSocRcmQspiClkSrcValMap)
                  1027a574    0000001a                                                : soc_rcm.obj (.rodata.gSocRcmRtiClkSrcValMap)
                  1027a58e    0000001a                                                : soc_rcm.obj (.rodata.gSocRcmSciClkSrcValMap)
                  1027a5a8    0000001a                                                : soc_rcm.obj (.rodata.gSocRcmSpiClkSrcValMap)
                  1027a5c2    0000001a     freertos.awr294x.r5f.ti-arm-clang.debug.lib : tasks.obj (.rodata.str1.10003396352110772215.1)
                  1027a5dc    0000001a                                                 : SemaphoreP_freertos.obj (.rodata.str1.11022221066391817236.1)
                  1027a5f6    0000001a                                                 : queue.obj (.rodata.str1.11765322630372331988.1)
                  1027a610    0000001a     mmwave_fullcfg.o (.rodata.str1.12417870098612570960.1)
                  1027a62a    0000001a     drivers.awr294x.r5f.ti-arm-clang.debug.lib : mailbox.obj (.rodata.str1.14252278916365655724.1)
                  1027a644    0000001a                                                : soc_rcm.obj (.rodata.str1.16907879152045164286.1)
                  1027a65e    0000001a     freertos.awr294x.r5f.ti-arm-clang.debug.lib : tasks.obj (.rodata.str1.17181842458667904009.1)
                  1027a678    0000001a     drivers.awr294x.r5f.ti-arm-clang.debug.lib : edma.obj (.rodata.str1.7525109154754115535.1)
                  1027a692    0000001a     ti_drivers_config.o (.rodata.str1.860770065360866003.1)
                  1027a6ac    00000019     cli_mmwave.o (.rodata.str1.10798488069459756575.1)
                  1027a6c5    00000019     freertos.awr294x.r5f.ti-arm-clang.debug.lib : TimerP_rti.obj (.rodata.str1.12012997325668529457.1)
                  1027a6de    00000019     drivers.awr294x.r5f.ti-arm-clang.debug.lib : ipc_notify_v1.obj (.rodata.str1.12253177398743541182.1)
                  1027a6f7    00000019     mmwave_fullcfg.o (.rodata.str1.13739991186320918766.1)
                  1027a710    00000019     mmwave_fullcfg.o (.rodata.str1.14071412229074121683.1)
                  1027a729    00000019     drivers.awr294x.r5f.ti-arm-clang.debug.lib : uart_sci_edma.obj (.rodata.str1.14594208086995775873.1)
                  1027a742    00000019                                                : uart_sci.obj (.rodata.str1.14955218707181535181.1)
                  1027a75b    00000019     freertos.awr294x.r5f.ti-arm-clang.debug.lib : timers.obj (.rodata.str1.15628002448382055558.1)
                  1027a774    00000019     drivers.awr294x.r5f.ti-arm-clang.debug.lib : uart_sci.obj (.rodata.str1.16749686218983999273.1)
                  1027a78d    00000019     freertos.awr294x.r5f.ti-arm-clang.debug.lib : queue.obj (.rodata.str1.2068208149952083127.1)
                  1027a7a6    00000019                                                 : tasks.obj (.rodata.str1.244605201944591920.1)
                  1027a7bf    00000019                                                 : queue.obj (.rodata.str1.2948272999977107176.1)
                  1027a7d8    00000019                                                 : queue.obj (.rodata.str1.3468573994310079257.1)
                  1027a7f1    00000018     mmwave_fullcfg.o (.rodata.str1.11355196017855049597.1)
                  1027a809    00000018     freertos.awr294x.r5f.ti-arm-clang.debug.lib : tasks.obj (.rodata.str1.13344916649340266805.1)
                  1027a821    00000018     drivers.awr294x.r5f.ti-arm-clang.debug.lib : uart_sci.obj (.rodata.str1.13569693569126233787.1)
                  1027a839    00000018                                                : uart_sci_edma.obj (.rodata.str1.13625843004486228830.1)
                  1027a851    00000018     mmwave_fullcfg.o (.rodata.str1.13828798850859959432.1)
                  1027a869    00000018     drivers.awr294x.r5f.ti-arm-clang.debug.lib : soc_rcm.obj (.rodata.str1.15698070000904087989.1)
                  1027a881    00000018     freertos.awr294x.r5f.ti-arm-clang.debug.lib : tasks.obj (.rodata.str1.15740406556629270602.1)
                  1027a899    00000018                                                 : queue.obj (.rodata.str1.18236504432714223226.1)
                  1027a8b1    00000018     ti_drivers_config.o (.rodata.str1.2211846465855763212.1)
                  1027a8c9    00000018     freertos.awr294x.r5f.ti-arm-clang.debug.lib : queue.obj (.rodata.str1.4783428148027574403.1)
                  1027a8e1    00000018                                                 : tasks.obj (.rodata.str1.4810192888527840656.1)
                  1027a8f9    00000018     drivers.awr294x.r5f.ti-arm-clang.debug.lib : ipc_notify_v1_cfg.obj (.rodata.str1.516174688186082407.1)
                  1027a911    00000018                                                : soc_rcm.obj (.rodata.str1.5644146021439259721.1)
                  1027a929    00000018                                                : soc_rcm.obj (.rodata.str1.8734959275723459859.1)
                  1027a941    00000017     cli_mmwave.o (.rodata.str1.11321869333796700081.1)
                  1027a958    00000017     drivers.awr294x.r5f.ti-arm-clang.debug.lib : soc_rcm.obj (.rodata.str1.1263028196474875090.1)
                  1027a96f    00000017     freertos.awr294x.r5f.ti-arm-clang.debug.lib : tasks.obj (.rodata.str1.1416243454897364710.1)
                  1027a986    00000017     drivers.awr294x.r5f.ti-arm-clang.debug.lib : uart_sci.obj (.rodata.str1.1651380468894452474.1)
                  1027a99d    00000017                                                : soc_rcm.obj (.rodata.str1.17538818475614418282.1)
                  1027a9b4    00000017     freertos.awr294x.r5f.ti-arm-clang.debug.lib : timers.obj (.rodata.str1.18265711717753411804.1)
                  1027a9cb    00000017                                                 : timers.obj (.rodata.str1.2312973347762327973.1)
                  1027a9e2    00000016     drivers.awr294x.r5f.ti-arm-clang.debug.lib : soc_rcm.obj (.rodata.gSocRcmPllCoreOut2HSDivClkSrcValMap)
                  1027a9f8    00000016                                                : soc_rcm.obj (.rodata.gSocRcmPllDspOut1HSDivClkSrcValMap)
                  1027aa0e    00000016                                                : soc_rcm.obj (.rodata.gSocRcmPllDspOut2HSDivClkSrcValMap)
                  1027aa24    00000016                                                : soc_rcm.obj (.rodata.gSocRcmPllPerOut1HSDivClkSrcValMap)
                  1027aa3a    00000016     freertos.awr294x.r5f.ti-arm-clang.debug.lib : tasks.obj (.rodata.str1.12915494234774218437.1)
                  1027aa50    00000016     drivers.awr294x.r5f.ti-arm-clang.debug.lib : uart_sci.obj (.rodata.str1.13079579762156810528.1)
                  1027aa66    00000016     cli_mmwave.o (.rodata.str1.15210344523069867921.1)
                  1027aa7c    00000016     drivers.awr294x.r5f.ti-arm-clang.debug.lib : ipc_rpmsg.obj (.rodata.str1.16486853128403771656.1)
                  1027aa92    00000016                                                : soc_rcm.obj (.rodata.str1.18101715471844446405.1)
                  1027aaa8    00000016     freertos.awr294x.r5f.ti-arm-clang.debug.lib : timers.obj (.rodata.str1.1863766670952869147.1)
                  1027aabe    00000016                                                 : tasks.obj (.rodata.str1.2834791214610268086.1)
                  1027aad4    00000016     drivers.awr294x.r5f.ti-arm-clang.debug.lib : soc_rcm.obj (.rodata.str1.503491203257075565.1)
                  1027aaea    00000016                                                : soc_rcm.obj (.rodata.str1.6958094397977218529.1)
                  1027ab00    00000016     R5F_0.o (.rodata.str1.8123771911866908037.1)
                  1027ab16    00000016     R5F_0.o (.rodata.str1.9047649062267296531.1)
                  1027ab2c    00000015     drivers.awr294x.r5f.ti-arm-clang.debug.lib : ipc_rpmsg_vring.obj (.rodata.str1.10951797515982497648.1)
                  1027ab41    00000015     freertos.awr294x.r5f.ti-arm-clang.debug.lib : tasks.obj (.rodata.str1.1179690219950103224.1)
                  1027ab56    00000015     drivers.awr294x.r5f.ti-arm-clang.debug.lib : uart_sci.obj (.rodata.str1.15327565616438085307.1)
                  1027ab6b    00000015     freertos.awr294x.r5f.ti-arm-clang.debug.lib : timers.obj (.rodata.str1.1862016452340430421.1)
                  1027ab80    00000015     drivers.awr294x.r5f.ti-arm-clang.debug.lib : ipc_notify_v1.obj (.rodata.str1.2749849238461102323.1)
                  1027ab95    00000015     freertos.awr294x.r5f.ti-arm-clang.debug.lib : tasks.obj (.rodata.str1.3834493932173273458.1)
                  1027abaa    00000015                                                 : queue.obj (.rodata.str1.733373753318541697.1)
                  1027abbf    00000015     drivers.awr294x.r5f.ti-arm-clang.debug.lib : mailbox.obj (.rodata.str1.965971460254086208.1)
                  1027abd4    00000015                                                : edma.obj (.rodata.str1.9771253703579349310.1)
                  1027abe9    00000014                                                : soc_rcm.obj (.rodata.str1.11890050604266936394.1)
                  1027abfd    00000014     freertos.awr294x.r5f.ti-arm-clang.debug.lib : timers.obj (.rodata.str1.12862578983123979947.1)
                  1027ac11    00000014     drivers.awr294x.r5f.ti-arm-clang.debug.lib : uart_sci.obj (.rodata.str1.14646560437895132523.1)
                  1027ac25    00000014                                                : uart_sci.obj (.rodata.str1.14795154960849480812.1)
                  1027ac39    00000014     freertos.awr294x.r5f.ti-arm-clang.debug.lib : tasks.obj (.rodata.str1.1590280515097235757.1)
                  1027ac4d    00000014     drivers.awr294x.r5f.ti-arm-clang.debug.lib : edma.obj (.rodata.str1.16586217098785273673.1)
                  1027ac61    00000014                                                : ipc_rpmsg.obj (.rodata.str1.168554633486331424.1)
                  1027ac75    00000014                                                : ipc_notify_v1.obj (.rodata.str1.17722115868992979254.1)
                  1027ac89    00000014                                                : uart_sci.obj (.rodata.str1.18348350723242781530.1)
                  1027ac9d    00000014     mmwave_fullcfg.o (.rodata.str1.2677796183576344418.1)
                  1027acb1    00000014     freertos.awr294x.r5f.ti-arm-clang.debug.lib : timers.obj (.rodata.str1.2835172901334304404.1)
                  1027acc5    00000014                                                 : queue.obj (.rodata.str1.3905706667075460799.1)
                  1027acd9    00000014     drivers.awr294x.r5f.ti-arm-clang.debug.lib : ipc_notify_v1.obj (.rodata.str1.5235938544388580736.1)
                  1027aced    00000014     freertos.awr294x.r5f.ti-arm-clang.debug.lib : queue.obj (.rodata.str1.7843261785982681291.1)
                  1027ad01    00000014                                                 : queue.obj (.rodata.str1.9215182567506272009.1)
                  1027ad15    00000014                                                 : timers.obj (.rodata.str1.9298715925424931114.1)
                  1027ad29    00000013                                                 : tasks.obj (.rodata.str1.11231016557412941470.1)
                  1027ad3c    00000013     drivers.awr294x.r5f.ti-arm-clang.debug.lib : uart_sci.obj (.rodata.str1.11623347248764087840.1)
                  1027ad4f    00000013     freertos.awr294x.r5f.ti-arm-clang.debug.lib : tasks.obj (.rodata.str1.13310467261413824673.1)
                  1027ad62    00000013     cli_mmwave.o (.rodata.str1.14745048361220276314.1)
                  1027ad75    00000013     drivers.awr294x.r5f.ti-arm-clang.debug.lib : soc_rcm.obj (.rodata.str1.1513614241493853460.1)
                  1027ad88    00000013                                                : uart_sci.obj (.rodata.str1.15267770103259764393.1)
                  1027ad9b    00000013     cli_mmwave.o (.rodata.str1.2558870136344908891.1)
                  1027adae    00000013     drivers.awr294x.r5f.ti-arm-clang.debug.lib : uart_sci.obj (.rodata.str1.4267138121280169591.1)
                  1027adc1    00000013     mmwave_fullcfg.o (.rodata.str1.5565255138332615081.1)
                  1027add4    00000013     freertos.awr294x.r5f.ti-arm-clang.debug.lib : queue.obj (.rodata.str1.7393829526960650191.1)
                  1027ade7    00000013                                                 : timers.obj (.rodata.str1.8150608600152831395.1)
                  1027adfa    00000012     cli_mmwave.o (.rodata.str1.1074115268206613332.1)
                  1027ae0c    00000012     drivers.awr294x.r5f.ti-arm-clang.debug.lib : soc_rcm.obj (.rodata.str1.11522297560260873926.1)
                  1027ae1e    00000012     R5F_0.o (.rodata.str1.12821660731947068374.1)
                  1027ae30    00000012     cli_mmwave.o (.rodata.str1.15990392960302084390.1)
                  1027ae42    00000012     R5F_0.o (.rodata.str1.17791230845319135151.1)
                  1027ae54    00000012     cli.o (.rodata.str1.18124922909559212033.1)
                  1027ae66    00000012     R5F_0.o (.rodata.str1.18155565232355924835.1)
                  1027ae78    00000012     drivers.awr294x.r5f.ti-arm-clang.debug.lib : uart_sci.obj (.rodata.str1.2243303246510624068.1)
                  1027ae8a    00000012                                                : uart_sci_edma.obj (.rodata.str1.3105906411258131444.1)
                  1027ae9c    00000012     freertos.awr294x.r5f.ti-arm-clang.debug.lib : tasks.obj (.rodata.str1.4316595054244273283.1)
                  1027aeae    00000012     drivers.awr294x.r5f.ti-arm-clang.debug.lib : ipc_notify_v1.obj (.rodata.str1.4922609433019995091.1)
                  1027aec0    00000012     freertos.awr294x.r5f.ti-arm-clang.debug.lib : queue.obj (.rodata.str1.5113766004027316909.1)
                  1027aed2    00000012     drivers.awr294x.r5f.ti-arm-clang.debug.lib : uart_sci_edma.obj (.rodata.str1.5198316254912735307.1)
                  1027aee4    00000012                                                : soc_rcm.obj (.rodata.str1.6089483996110695684.1)
                  1027aef6    00000012     freertos.awr294x.r5f.ti-arm-clang.debug.lib : queue.obj (.rodata.str1.6729734474146706965.1)
                  1027af08    00000012     cli_mmwave.o (.rodata.str1.8161216477827922885.1)
                  1027af1a    00000012     drivers.awr294x.r5f.ti-arm-clang.debug.lib : edma.obj (.rodata.str1.8988798825313313125.1)
                  1027af2c    00000012     freertos.awr294x.r5f.ti-arm-clang.debug.lib : tasks.obj (.rodata.str1.9183642040402371953.1)
                  1027af3e    00000012     mmwave_fullcfg.o (.rodata.str1.9768376411685582156.1)
                  1027af50    00000011     libc.a : _printfi.c.obj (.rodata.str1.10348868589481759720.1)
                  1027af61    00000011     ti_drivers_open_close.o (.rodata.str1.12213835641041270557.1)
                  1027af72    00000011     freertos.awr294x.r5f.ti-arm-clang.debug.lib : SemaphoreP_freertos.obj (.rodata.str1.12663718090588439116.1)
                  1027af83    00000011     drivers.awr294x.r5f.ti-arm-clang.debug.lib : edma.obj (.rodata.str1.13359792024450833872.1)
                  1027af94    00000011     libc.a : _printfi.c.obj (.rodata.str1.15363888844622738466.1)
                  1027afa5    00000011     drivers.awr294x.r5f.ti-arm-clang.debug.lib : uart_sci.obj (.rodata.str1.16373552912503992910.1)
                  1027afb6    00000011     R5F_0.o (.rodata.str1.17492158338171123104.1)
                  1027afc7    00000011     drivers.awr294x.r5f.ti-arm-clang.debug.lib : uart_sci.obj (.rodata.str1.5346336790851612113.1)
                  1027afd8    00000011     ti_drivers_open_close.o (.rodata.str1.6292539624901818759.1)
                  1027afe9    00000011     drivers.awr294x.r5f.ti-arm-clang.debug.lib : edma.obj (.rodata.str1.7198617623142260305.1)
                  1027affa    00000011     R5F_0.o (.rodata.str1.730438201434814671.1)
                  1027b00b    00000011     R5F_0.o (.rodata.str1.8767515524384160113.1)
                  1027b01c    00000011     drivers.awr294x.r5f.ti-arm-clang.debug.lib : ipc_notify_v1.obj (.rodata.str1.9036292169629118271.1)
                  1027b02d    00000011     R5F_0.o (.rodata.str1.9423778737635812118.1)
                  1027b03e    00000002     --HOLE-- [fill = 0]
                  1027b040    00000010     drivers.awr294x.r5f.ti-arm-clang.debug.lib : soc_rcm.obj (.rodata.gSocRcmXTALInfo)
                  1027b050    00000010     freertos.awr294x.r5f.ti-arm-clang.debug.lib : HeapP_freertos.obj (.rodata.str1.10992185596640363350.1)
                  1027b060    00000010     cli_mmwave.o (.rodata.str1.12441091198492934871.1)
                  1027b070    00000010     drivers.awr294x.r5f.ti-arm-clang.debug.lib : soc_rcm.obj (.rodata.str1.15837709475095375462.1)
                  1027b080    00000010                                                : edma.obj (.rodata.str1.16687974986316968853.1)
                  1027b090    00000010     cli_mmwave.o (.rodata.str1.18367718673370561974.1)
                  1027b0a0    00000010     mmwave_fullcfg.o (.rodata.str1.6233836419440761222.1)
                  1027b0b0    00000010     mmwave_fullcfg.o (.rodata.str1.8785775127140403023.1)
                  1027b0c0    0000000f     drivers.awr294x.r5f.ti-arm-clang.debug.lib : edma.obj (.rodata.str1.12381575634899622488.1)
                  1027b0cf    0000000f     cli.o (.rodata.str1.12773820118764307366.1)
                  1027b0de    0000000f     drivers.awr294x.r5f.ti-arm-clang.debug.lib : uart_sci_edma.obj (.rodata.str1.14352340193453835613.1)
                  1027b0ed    0000000f                                                : uart_sci.obj (.rodata.str1.14361801408490161789.1)
                  1027b0fc    0000000f                                                : edma.obj (.rodata.str1.15707078201242323249.1)
                  1027b10b    0000000f                                                : ipc_rpmsg.obj (.rodata.str1.2349415626014672259.1)
                  1027b11a    0000000f                                                : edma.obj (.rodata.str1.2781376525681532154.1)
                  1027b129    0000000f                                                : ipc_rpmsg.obj (.rodata.str1.356968843598523335.1)
                  1027b138    0000000f                                                : ipc_notify_v1.obj (.rodata.str1.4769539187903082080.1)
                  1027b147    0000000f                                                : edma.obj (.rodata.str1.4907917467944964367.1)
                  1027b156    0000000f     cli_mmwave.o (.rodata.str1.6867964666247323138.1)
                  1027b165    0000000f     freertos.awr294x.r5f.ti-arm-clang.debug.lib : tasks.obj (.rodata.str1.9703773919170427980.1)
                  1027b174    0000000e     drivers.awr294x.r5f.ti-arm-clang.debug.lib : uart_sci.obj (.rodata.str1.14999651368876527043.1)
                  1027b182    0000000e     main.o (.rodata.str1.15159059442110792349.1)
                  1027b190    0000000e     drivers.awr294x.r5f.ti-arm-clang.debug.lib : edma.obj (.rodata.str1.1669868279207928169.1)
                  1027b19e    0000000e     freertos.awr294x.r5f.ti-arm-clang.debug.lib : tasks.obj (.rodata.str1.17639782545178793908.1)
                  1027b1ac    0000000e     cli.o (.rodata.str1.1947802094649040926.1)
                  1027b1ba    0000000e     freertos.awr294x.r5f.ti-arm-clang.debug.lib : queue.obj (.rodata.str1.4870389810463987135.1)
                  1027b1c8    0000000e     drivers.awr294x.r5f.ti-arm-clang.debug.lib : edma.obj (.rodata.str1.6128441279204879358.1)
                  1027b1d6    0000000d                                                : soc_rcm.obj (.rodata.gSocRcmPeripheralClkSrcInfoMap)
                  1027b1e3    0000000d                                                : mailbox.obj (.rodata.str1.11141038073499790006.1)
                  1027b1f0    0000000d                                                : edma.obj (.rodata.str1.14657363906792235350.1)
                  1027b1fd    0000000d     freertos.awr294x.r5f.ti-arm-clang.debug.lib : HeapP_internal.obj (.rodata.str1.16976504604272961639.1)
                  1027b20a    0000000d                                                 : tasks.obj (.rodata.str1.17242638503507280240.1)
                  1027b217    0000000d     cli_mmwave.o (.rodata.str1.18387761006562504024.1)
                  1027b224    0000000d     freertos.awr294x.r5f.ti-arm-clang.debug.lib : queue.obj (.rodata.str1.3965108510571005880.1)
                  1027b231    0000000d                                                 : TimerP_rti.obj (.rodata.str1.4652010957040956204.1)
                  1027b23e    0000000d                                                 : TimerP_rti.obj (.rodata.str1.8647234761324387433.1)
                  1027b24b    0000000c     cli_mmwave.o (.rodata.str1.115118728638464132.1)
                  1027b257    0000000c     cli_mmwave.o (.rodata.str1.11580422179374476773.1)
                  1027b263    0000000c     freertos.awr294x.r5f.ti-arm-clang.debug.lib : SemaphoreP_freertos.obj (.rodata.str1.1435396952230408608.1)
                  1027b26f    0000000c                                                 : ClockP_freertos_r5.obj (.rodata.str1.163709248249584909.1)
                  1027b27b    0000000c     cli_mmwave.o (.rodata.str1.16874677826778694664.1)
                  1027b287    0000000c     cli_mmwave.o (.rodata.str1.2443618161435172214.1)
                  1027b293    0000000c     freertos.awr294x.r5f.ti-arm-clang.debug.lib : tasks.obj (.rodata.str1.288740206031155615.1)
                  1027b29f    0000000c     ti_drivers_config.o (.rodata.str1.3145245972279493797.1)
                  1027b2ab    0000000b     drivers.awr294x.r5f.ti-arm-clang.debug.lib : soc_rcm.obj (.rodata.gSocRcmHsDivMuxClkSrcInfoMap)
                  1027b2b6    0000000b                                                : ipc_notify_v1_cfg.obj (.rodata.str1.10405701647072130080.1)
                  1027b2c1    0000000b                                                : uart_sci.obj (.rodata.str1.10411585078565434164.1)
                  1027b2cc    0000000b     cli.o (.rodata.str1.13819154365536340683.1)
                  1027b2d7    0000000b     cli_mmwave.o (.rodata.str1.16301007486888867950.1)
                  1027b2e2    0000000b     cli_mmwave.o (.rodata.str1.17927180872073983637.1)
                  1027b2ed    0000000b     cli_mmwave.o (.rodata.str1.2712059042974733954.1)
                  1027b2f8    0000000b     cli_mmwave.o (.rodata.str1.4934962861342740939.1)
                  1027b303    0000000b     drivers.awr294x.r5f.ti-arm-clang.debug.lib : edma.obj (.rodata.str1.597652134494230196.1)
                  1027b30e    0000000b                                                : uart_sci.obj (.rodata.str1.6167666784114344241.1)
                  1027b319    0000000b     freertos.awr294x.r5f.ti-arm-clang.debug.lib : tasks.obj (.rodata.str1.9993771681305664476.1)
                  1027b324    0000000a     drivers.awr294x.r5f.ti-arm-clang.debug.lib : soc_rcm.obj (.rodata.gSocRcmR5ClkSrcValMap)
                  1027b32e    0000000a                                                : uart_sci.obj (.rodata.str1.12026311279637829031.1)
                  1027b338    0000000a     R5F_0.o (.rodata.str1.12923027545888315049.1)
                  1027b342    0000000a     R5F_0.o (.rodata.str1.15241414163687352421.1)
                  1027b34c    0000000a     drivers.awr294x.r5f.ti-arm-clang.debug.lib : edma.obj (.rodata.str1.1531866724018994888.1)
                  1027b356    0000000a                                                : edma.obj (.rodata.str1.15529668034699970473.1)
                  1027b360    0000000a     cli_mmwave.o (.rodata.str1.3242251914922501910.1)
                  1027b36a    0000000a     cli.o (.rodata.str1.3651822891860915968.1)
                  1027b374    0000000a     drivers.awr294x.r5f.ti-arm-clang.debug.lib : soc_rcm.obj (.rodata.str1.6320624314545346468.1)
                  1027b37e    0000000a     main.o (.rodata.str1.8154729771448623357.1)
                  1027b388    0000000a     drivers.awr294x.r5f.ti-arm-clang.debug.lib : uart_sci.obj (.rodata.str1.8463040655315483508.1)
                  1027b392    0000000a     freertos.awr294x.r5f.ti-arm-clang.debug.lib : HeapP_internal.obj (.rodata.str1.8571992827015613064.1)
                  1027b39c    0000000a     drivers.awr294x.r5f.ti-arm-clang.debug.lib : ipc_notify_v1.obj (.rodata.str1.8751964444192423158.1)
                  1027b3a6    0000000a                                                : uart_sci.obj (.rodata.str1.9295019984471290026.1)
                  1027b3b0    00000009     cli_mmwave.o (.rodata.str1.10494800937795357283.1)
                  1027b3b9    00000009     cli.o (.rodata.str1.11390613882332463407.1)
                  1027b3c2    00000009     cli.o (.rodata.str1.12260413620416388169.1)
                  1027b3cb    00000009     cli_mmwave.o (.rodata.str1.15031705920153034336.1)
                  1027b3d4    00000009     cli_mmwave.o (.rodata.str1.3111923435152208251.1)
                  1027b3dd    00000009     cli_mmwave.o (.rodata.str1.867542610193106041.1)
                  1027b3e6    00000009     cli.o (.rodata.str1.8818633465694189400.1)
                  1027b3ef    00000001     --HOLE-- [fill = 0]
                  1027b3f0    00000008     drivers.awr294x.r5f.ti-arm-clang.debug.lib : soc_rcm.obj (.rodata.gSocRcmXTALFreqTbl)
                  1027b3f8    00000008     cli_mmwave.o (.rodata.str1.17474468221543714518.1)
                  1027b400    00000008     freertos.awr294x.r5f.ti-arm-clang.debug.lib : timers.obj (.rodata.str1.6031452896567546882.1)
                  1027b408    00000007     cli.o (.rodata.str1.3514587279813539037.1)
                  1027b40f    00000007     cli_mmwave.o (.rodata.str1.3657786606362152052.1)
                  1027b416    00000007     R5F_0.o (.rodata.str1.4583277720812141852.1)
                  1027b41d    00000007     cli.o (.rodata.str1.9705660108350901375.1)
                  1027b424    00000005     cli.o (.rodata.str1.10963209298357169998.1)
                  1027b429    00000005     freertos.awr294x.r5f.ti-arm-clang.debug.lib : tasks.obj (.rodata.str1.17790062339596940786.1)
                  1027b42e    00000005     main.o (.rodata.str1.8309300403304547201.1)
                  1027b433    00000005     freertos.awr294x.r5f.ti-arm-clang.debug.lib : printf.obj (.rodata.str1.8544352122861784523.1)
                  1027b438    00000005                                                 : timers.obj (.rodata.str1.8630227424645744516.1)
                  1027b43d    00000005                                                 : printf.obj (.rodata.str1.8812429412984920041.1)
                  1027b442    00000002     --HOLE-- [fill = 0]
                  1027b444    00000004                                                 : CacheP_armv7r.obj (.rodata.gCacheL1dCacheLineSize)
                  1027b448    00000004                                                 : CacheP_armv7r.obj (.rodata.gCacheL1pCacheLineSize)
                  1027b44c    00000004     R5F_0.o (.rodata.str1.12678058007033438875.1)
                  1027b450    00000004     freertos.awr294x.r5f.ti-arm-clang.debug.lib : printf.obj (.rodata.str1.13278797451342649413.1)
                  1027b454    00000004     R5F_0.o (.rodata.str1.16721511253025502811.1)
                  1027b458    00000004     freertos.awr294x.r5f.ti-arm-clang.debug.lib : printf.obj (.rodata.str1.17155598869870286803.1)
                  1027b45c    00000004     R5F_0.o (.rodata.str1.4148029561120817258.1)
                  1027b460    00000004     freertos.awr294x.r5f.ti-arm-clang.debug.lib : tasks.obj (.rodata.uxTopUsedPriority)
                  1027b464    0000000c     --HOLE-- [fill = 0]

.bss       0    1027b480    0000c100     UNINITIALIZED
                  1027b480    00004000     (.common:gCliTskStack)
                  1027f480    00004000     (.common:gMainTaskStack)
                  10283480    00001008     (.common:gHwiCtrl)
                  10284488    00001000     freertos.awr294x.r5f.ti-arm-clang.debug.lib : port.obj (.bss.uxIdleTaskStack)
                  10285488    00000730     (.common:gIpcRpmsgCtrl)
                  10285bb8    00000400                                                 : port.obj (.bss.uxTimerTaskStack)
                  10285fb8    000002b4     ti_drivers_config.o (.bss.gUartObjects)
                  1028626c    0000029c     (.common:gCLI)
                  10286508    00000280     freertos.awr294x.r5f.ti-arm-clang.debug.lib : tasks.obj (.bss.pxReadyTasksLists)
                  10286788    000001e4     ti_drivers_config.o (.bss.gEdmaObjects)
                  1028696c    00000120     libsysbm.a : trgmsg.c.obj (.bss:_CIOBUF_)
                  10286a8c    00000100     freertos.awr294x.r5f.ti-arm-clang.debug.lib : timers.obj (.bss.prvCheckForValidListAndQueue.ucStaticTimerQueueStorage)
                  10286b8c    00000100     (.common:xQueueRegistry)
                  10286c8c    000000d4     (.common:gCLIMMWaveControlCfg)
                  10286d60    000000c0     R5F_0.o (.bss.gMsgObj)
                  10286e20    000000c0     R5F_0.o (.bss.gRecvObj)
                  10286ee0    000000a0     libc.a : defs.c.obj (.bss.__TI_tmpnams)
                  10286f80    000000a0     (.common:gTaskP_ctrl)
                  10287020    00000098     freertos.awr294x.r5f.ti-arm-clang.debug.lib : DebugP_freertos.obj (.bss.gDebugLogLockObj)
                  102870b8    0000008c                                                 : port.obj (.bss.xIdleTaskTCB)
                  10287144    0000008c                                                 : port.obj (.bss.xTimerTaskTCB)
                  102871d0    0000008c     (.common:gCliTaskObj)
                  1028725c    0000008c     (.common:gMainTaskObj)
                  102872e8    00000080     mmwave_fullcfg.o (.bss.gMmwHeapObj)
                  10287368    00000050     freertos.awr294x.r5f.ti-arm-clang.debug.lib : timers.obj (.bss.prvCheckForValidListAndQueue.xStaticTimerQueue)
                  102873b8    00000050     (.common:gRovDummyQueue)
                  10287408    00000044     (.common:gCLIMMWaveOpenCfg)
                  1028744c    00000004                                                 : HwiP_armv7r_handlers_freertos.obj (.bss.gdummy)
                  10287450    00000038     (.common:gClockCtrl)
                  10287488    00000018     (.common:gMailbox_ctrl)
                  102874a0    00000014                                                 : timers.obj (.bss.xActiveTimerList1)
                  102874b4    00000014                                                 : timers.obj (.bss.xActiveTimerList2)
                  102874c8    00000014                                                 : tasks.obj (.bss.xDelayedTaskList1)
                  102874dc    00000014                                                 : tasks.obj (.bss.xDelayedTaskList2)
                  102874f0    00000014                                                 : tasks.obj (.bss.xPendingReadyList)
                  10287504    00000014                                                 : tasks.obj (.bss.xSuspendedTaskList)
                  10287518    00000014                                                 : tasks.obj (.bss.xTasksWaitingTermination)
                  1028752c    00000010     (.common:virtToPhymap)
                  1028753c    00000008     libsysbm.a : hostopen.c.obj (.bss.parmbuf)
                  10287544    00000004     freertos.awr294x.r5f.ti-arm-clang.debug.lib : HwiP_armv7r_vim.obj (.bss.gdummy)
                  10287548    00000008     (.common:gCLI_mmwave_freq_scale_factor)
                  10287550    00000004                                                 : timers.obj (.bss.pxCurrentTimerList)
                  10287554    00000004                                                 : tasks.obj (.bss.pxDelayedTaskList)
                  10287558    00000004                                                 : tasks.obj (.bss.pxOverflowDelayedTaskList)
                  1028755c    00000004                                                 : timers.obj (.bss.pxOverflowTimerList)
                  10287560    00000004     libc.a : memory.c.obj (.bss.sys_free)
                  10287564    00000004     (.common:gCliTask)
                  10287568    00000004     (.common:gEdmaHandle)
                  1028756c    00000004     (.common:gMainTask)
                  10287570    00000004     (.common:gUartHandle)
                  10287574    0000000c     --HOLE--

.sysmem    0    10287580    00008000     UNINITIALIZED
                  10287580    00000010     libc.a : memory.c.obj (.sysmem)
                  10287590    00007ff0     --HOLE--

.stack     0    1028f580    00004000     UNINITIALIZED
                  1028f580    00000004     freertos.awr294x.r5f.ti-arm-clang.debug.lib : boot_armv7r_asm.obj (.stack)
                  1028f584    00003ffc     --HOLE--

.data      0    10293580    00002e80     
                  10293580    00002000     mmwave_fullcfg.o (.data.gMmwHeapMem)
                  10295580    000001ec     rl_driver.o (.data.rl_driverData)
                  1029576c    000001c0     drivers.awr294x.r5f.ti-arm-clang.debug.lib : ipc_notify_v1_cfg.obj (.data.gIpcNotifyMailboxConfig)
                  1029592c    00000100     rl_driver.o (.data.rl_rxMsg)
                  10295a2c    00000100     rl_driver.o (.data.rl_txMsg)
                  10295b2c    000000fc     drivers.awr294x.r5f.ti-arm-clang.debug.lib : ipc_notify_v1.obj (.data.gIpcNotifyCtrl)
                  10295c28    000000f0     libc.a : defs.c.obj (.data._ftable)
                  10295d18    000000e4     cli_mmwave.o (.data.gCLIMMWaveExtensionTable)
                  10295dfc    000000c0     drivers.awr294x.r5f.ti-arm-clang.debug.lib : mailbox_cfg.obj (.data.gMailboxRemoteCoreObj_c66ss0_to_rss_r4)
                  10295ebc    000000c0                                                : mailbox_cfg.obj (.data.gMailboxRemoteCoreObj_r5ss0_0_to_rss_r4)
                  10295f7c    0000009c                                                : uart_sci.obj (.data.gUartDrvObj)
                  10296018    00000090     ti_pinmux_config.o (.data.gPinMuxMainDomainCfg)
                  102960a8    00000080     ti_drivers_config.o (.data.gEdmaAttrs)
                  10296128    00000078     libsysbm.a : host_device.c.obj (.data._device)
                  102961a0    00000070     drivers.awr294x.r5f.ti-arm-clang.debug.lib : ipc_notify_v1_cfg.obj (.data.gIpcNotifyInterruptConfig_r5fss0_0)
                  10296210    00000050     libsysbm.a : host_device.c.obj (.data._stream)
                  10296260    00000038     ti_pinmux_config.o (.data.gPinMuxMainDomainCfg1)
                  10296298    00000038     ti_drivers_open_close.o (.data.gUartParams)
                  102962d0    00000018     ti_dpl_config.o (.data.gClockConfig)
                  102962e8    00000018     ti_power_clock_config.o (.data.gSocModulesClockFrequency)
                  10296300    00000010     drivers.awr294x.r5f.ti-arm-clang.debug.lib : ipc_notify_v1_cfg.obj (.data.gIpcNotifyCoreIntrBitPos)
                  10296310    00000008     libc.a : exit.c.obj (.data..L_MergedGlobals)
                  10296318    00000008     ti_drivers_config.o (.data.gEdmaConfig)
                  10296320    00000008     ti_drivers_open_close.o (.data.gEdmaParams)
                  10296328    00000008     ti_power_clock_config.o (.data.gSocModules)
                  10296330    00000008     ti_drivers_config.o (.data.gUartAttrs)
                  10296338    00000008     ti_drivers_config.o (.data.gUartConfig)
                  10296340    00000008     freertos.awr294x.r5f.ti-arm-clang.debug.lib : PmuP_armv7r.obj (.data.pmu)
                  10296348    00000008                                                 : TaskP_freertos.obj (.data.vApplicationLoadHook.lastUpdateTime)
                  10296350    00000004                                                 : tasks.obj (.data.FreeRTOS_errno)
                  10296354    00000004     libc.a : defs.c.obj (.data.__TI_ft_end)
                  10296358    00000004            : aeabi_portable.c.obj (.data.__aeabi_errno)
                  1029635c    00000004            : _lock.c.obj (.data._lock)
                  10296360    00000004            : _lock.c.obj (.data._unlock)
                  10296364    00000004     freertos.awr294x.r5f.ti-arm-clang.debug.lib : DebugP_freertos.obj (.data.gDebugLogIsInitDone)
                  10296368    00000004                                                 : DebugP_log.obj (.data.gDebugLogZone)
                  1029636c    00000004                                                 : DebugP_uartLogWriter.obj (.data.gDebugP_uartDrvIndex)
                  10296370    00000004     ti_drivers_config.o (.data.gEdmaConfigNum)
                  10296374    00000004     ti_dpl_config.o (.data.gHwiConfig)
                  10296378    00000004     drivers.awr294x.r5f.ti-arm-clang.debug.lib : ipc_notify_v1_cfg.obj (.data.gIpcNotifyInterruptConfigNum_r5fss0_0)
                  1029637c    00000004     ti_drivers_config.o (.data.gUartConfigNum)
                  10296380    00000004     libc.a : strtok.c.obj (.data.last_end)
                  10296384    00000004     freertos.awr294x.r5f.ti-arm-clang.debug.lib : timers.obj (.data.prvSampleTimeNow.xLastTime)
                  10296388    00000004                                                 : tasks.obj (.data.pxCurrentTCB)
                  1029638c    00000004                                                 : port.obj (.data.ulPortInterruptNesting)
                  10296390    00000004                                                 : port.obj (.data.ulPortSchedularRunning)
                  10296394    00000004                                                 : port.obj (.data.ulPortTaskHasFPUContext)
                  10296398    00000004                                                 : port.obj (.data.ulPortYieldRequired)
                  1029639c    00000004                                                 : tasks.obj (.data.ulTaskSwitchedInTime)
                  102963a0    00000004                                                 : tasks.obj (.data.ulTotalRunTime)
                  102963a4    00000004                                                 : tasks.obj (.data.uxCurrentNumberOfTasks)
                  102963a8    00000004                                                 : tasks.obj (.data.uxDeletedTasksWaitingCleanUp)
                  102963ac    00000004                                                 : tasks.obj (.data.uxSchedulerSuspended)
                  102963b0    00000004                                                 : tasks.obj (.data.uxTaskNumber)
                  102963b4    00000004                                                 : tasks.obj (.data.uxTopReadyPriority)
                  102963b8    00000004                                                 : tasks.obj (.data.xIdleTaskHandle)
                  102963bc    00000004                                                 : tasks.obj (.data.xNextTaskUnblockTime)
                  102963c0    00000004                                                 : tasks.obj (.data.xNumOfOverflows)
                  102963c4    00000004                                                 : tasks.obj (.data.xPendedTicks)
                  102963c8    00000004                                                 : tasks.obj (.data.xSchedulerRunning)
                  102963cc    00000004                                                 : tasks.obj (.data.xTickCount)
                  102963d0    00000004                                                 : timers.obj (.data.xTimerQueue)
                  102963d4    00000004                                                 : timers.obj (.data.xTimerTaskHandle)
                  102963d8    00000004                                                 : tasks.obj (.data.xYieldPending)
                  102963dc    00000001     mmwave_fullcfg.o (.data.isHeapMemAllocated)
                  102963dd    00000001     drivers.awr294x.r5f.ti-arm-clang.debug.lib : soc.obj (.data.isMapAvailable)
                  102963de    00000002     --HOLE-- [fill = 0]
                  102963e0    00000001     libc.a : memory.c.obj (.data.memory_is_initialized)
                  102963e1    0000001f     --HOLE-- [fill = 0]

.text.hwi 
*          0    10296400    00000f20     
                  10296400    000005ee     freertos.awr294x.r5f.ti-arm-clang.debug.lib : HwiP_armv7r_handlers_freertos.obj (.text.hwi)
                  102969ee    00000002     --HOLE-- [fill = 0]
                  102969f0    000005c6                                                 : HwiP_armv7r_vim.obj (.text.hwi)
                  10296fb6    00000002     --HOLE-- [fill = 0]
                  10296fb8    000001ec                                                 : portASM.obj (.text.hwi)
                  102971a4    00000100                                                 : HwiP_armv7r_handlers_freertos_asm.obj (.text.hwi)
                  102972a4    00000070                                                 : HwiP_armv7r_asm.obj (.text.hwi)
                  10297314    0000000c     --HOLE-- [fill = 0]

.text.cache 
*          0    10297320    000004a0     
                  10297320    00000340     freertos.awr294x.r5f.ti-arm-clang.debug.lib : CacheP_armv7r_asm.obj (.text.cache)
                  10297660    00000158                                                 : CacheP_armv7r.obj (.text.cache)
                  102977b8    00000008     --HOLE-- [fill = 0]

.text.mpu 
*          0    102977c0    000002c0     
                  102977c0    00000246     freertos.awr294x.r5f.ti-arm-clang.debug.lib : MpuP_armv7r.obj (.text.mpu)
                  10297a06    00000002     --HOLE-- [fill = 0]
                  10297a08    00000078                                                 : MpuP_armv7r_asm.obj (.text.mpu)

.text.boot 
*          0    10297a80    00000170     
                  10297a80    000000fc     freertos.awr294x.r5f.ti-arm-clang.debug.lib : boot_armv7r_asm.obj (.text.boot)
                  10297b7c    00000004     --HOLE-- [fill = 0]
                  10297b80    0000002a                                                 : DebugP_log.obj (.text.boot)
                  10297baa    00000006     --HOLE-- [fill = 0]
                  10297bb0    00000024                                                 : boot_armv7r.obj (.text.boot)
                  10297bd4    0000000c     --HOLE-- [fill = 0]
                  10297be0    0000000c     ti_dpl_config.o (.text.boot)
                  10297bec    00000004     --HOLE-- [fill = 0]

.text:abort 
*          0    10297bf0    00000008     
                  10297bf0    00000008     libc.a : exit.c.obj (.text:abort)

.irqstack 
*          0    10297bf8    00000100     UNINITIALIZED
                  10297bf8    00000100     --HOLE--

.fiqstack 
*          0    10297cf8    00000100     UNINITIALIZED
                  10297cf8    00000100     --HOLE--

.svcstack 
*          0    10297df8    00001000     UNINITIALIZED
                  10297df8    00001000     --HOLE--

.abortstack 
*          0    10298df8    00000100     UNINITIALIZED
                  10298df8    00000100     --HOLE--

.undefinedstack 
*          0    10298ef8    00000100     UNINITIALIZED
                  10298ef8    00000100     --HOLE--

.init_array 
*          0    10260000    00000000     UNINITIALIZED

.bss.ipc_vring_mem 
*          0    c5000200    000012c0     NOLOAD SECTION
                  c5000200    000012c0     ti_drivers_config.o (.bss.ipc_vring_mem)

MODULE SUMMARY

       Module                                  code     ro data   rw data
       ------                                  ----     -------   -------
    .\
       cli.o                                   1416     275       17196  
       main.o                                  164      65        16528  
       mmwave_fullcfg.o                        2424     518       8321   
       cli_mmwave.o                            7104     3642      516    
       rl_driver.o                             7326     0         1004   
       R5F_0.o                                 848      242       384    
       rl_controller.o                         360      0         0      
       mmwave_listlib.o                        352      0         0      
       rl_device.o                             320      0         0      
       rl_sensor.o                             186      0         0      
       mmwave.o                                152      0         0      
    +--+---------------------------------------+--------+---------+---------+
       Total:                                  20652    4742      43949  
                                                                         
    .\syscfg\
       ti_drivers_config.o                     554      89        6136   
       ti_drivers_open_close.o                 508      140       72     
       ti_dpl_config.o                         110      116       28     
       ti_pinmux_config.o                      44       0         200    
       ti_power_clock_config.o                 180      0         32     
       ti_board_open_close.o                   12       0         0      
       ti_board_config.o                       2        0         0      
    +--+---------------------------------------+--------+---------+---------+
       Total:                                  1410     345       6468   
                                                                         
    C:/ti/mmwave_mcuplus_sdk_04_07_01_04/mcu_plus_sdk_awr294x_10_01_00_04/source/drivers/lib/drivers.awr294x.r5f.ti-arm-clang.debug.lib
       soc_rcm.obj                             6928     1489      0      
       edma.obj                                7702     303       0      
       ipc_rpmsg.obj                           3112     918       1840   
       uart_sci.obj                            4930     390       156    
       ipc_notify_v1.obj                       4322     349       252    
       ipc_rpmsg_vring.obj                     2060     80        0      
       uart_sci_edma.obj                       1754     100       0      
       soc.obj                                 1508     0         17     
       ipc_notify_v1_cfg.obj                   688      109       580    
       mailbox_cfg.obj                         70       0         384    
       mailbox.obj                             356      60        24     
       pinmux.obj                              98       0         0      
    +--+---------------------------------------+--------+---------+---------+
       Total:                                  33528    3798      3253   
                                                                         
    C:/ti/mmwave_mcuplus_sdk_04_07_01_04/mcu_plus_sdk_awr294x_10_01_00_04/source/kernel/freertos/lib/freertos.awr294x.r5f.ti-arm-clang.debug.lib
       tasks.obj                               5770     1157      812    
       printf.obj                              6684     98        0      
       queue.obj                               4502     1346      256    
       port.obj                                586      93        5416   
       HwiP_armv7r_vim.obj                     1488     0         4108   
       timers.obj                              1784     282       396    
       HwiP_armv7r_handlers_freertos.obj       1518     0         4      
       HeapP_internal.obj                      1006     332       0      
       TimerP_rti.obj                          660      204       0      
       CacheP_armv7r_asm.obj                   832      0         0      
       SemaphoreP_freertos.obj                 532      170       80     
       ClockP_freertos_r5.obj                  430      270       0      
       TaskP_freertos.obj                      428      0         168    
       MpuP_armv7r.obj                         582      0         0      
       portASM.obj                             492      0         0      
       CacheP_armv7r.obj                       344      8         0      
       DebugP_freertos.obj                     146      0         156    
       list.obj                                296      0         0      
       ClockP_freertos.obj                     216      0         56     
       DebugP_log.obj                          216      42        4      
       HwiP_armv7r_handlers_freertos_asm.obj   256      0         0      
       boot_armv7r_asm.obj                     252      0         0      
       HeapP_freertos.obj                      120      88        0      
       PmuP_armv7r.obj                         168      0         8      
       DebugP_uartLogWriter.obj                132      0         4      
       MpuP_armv7r_asm.obj                     120      0         0      
       HwiP_armv7r_asm.obj                     112      0         0      
       HwiP_armv7r_vectors_freertos_asm.obj    64       0         0      
       PmuP_armv7r_asm.obj                     48       0         0      
       CpuId_armv7r.obj                        40       0         0      
       boot_armv7r.obj                         36       0         0      
       heap_3.obj                              32       0         0      
       AddrTranslateP_null.obj                 16       0         0      
       CpuId_armv7r_asm.obj                    12       0         0      
    +--+---------------------------------------+--------+---------+---------+
       Total:                                  29920    4090      11468  
                                                                         
    C:\ti\ccs2030\ccs\tools\compiler\ti-cgt-armllvm_4.0.3.LTS\lib\armv7r-ti-none-eabihf/c/libc.a
       _printfi.c.obj                          6504     34        0      
       strtod.c.obj                            1236     200       0      
       memory.c.obj                            1136     0         5      
       strcmp32.S.obj                          924      0         0      
       defs.c.obj                              0        0         404    
       s_scalbn.c.obj                          336      0         0      
       setvbuf.c.obj                           324      0         0      
       getdevice.c.obj                         284      0         0      
       aeabi_ctype.S.obj                       0        257       0      
       fputc.c.obj                             256      0         0      
       snprintf.c.obj                          252      0         0      
       vsnprintf.c.obj                         228      0         0      
       fseek.c.obj                             184      0         0      
       fclose.c.obj                            176      0         0      
       _io_perm.c.obj                          156      0         0      
       _ltoa.c.obj                             136      0         0      
       fflush.c.obj                            136      0         0      
       s_frexp.c.obj                           124      0         0      
       strtok.c.obj                            120      0         4      
       atoi.c.obj                              104      0         0      
       exit.c.obj                              92       0         8      
       fopen.c.obj                             88       0         0      
       autoinit.c.obj                          84       0         0      
       memccpy.c.obj                           76       0         0      
       strcspn.c.obj                           72       0         0      
       strspn.c.obj                            68       0         0      
       wcslen.c.obj                            32       0         0      
       memcpy32.S.obj                          28       0         0      
       strlen.c.obj                            28       0         0      
       memset32.S.obj                          24       0         0      
       aeabi_portable.c.obj                    12       0         4      
       _lock.c.obj                             4        0         8      
       atof.c.obj                              8        0         0      
    +--+---------------------------------------+--------+---------+---------+
       Total:                                  13232    491       433    
                                                                         
    C:\ti\ccs2030\ccs\tools\compiler\ti-cgt-armllvm_4.0.3.LTS\lib\armv7r-ti-none-eabihf/c/libsysbm.a
       trgmsg.c.obj                            176      0         288    
       hostrename.c.obj                        216      0         0      
       host_device.c.obj                       0        0         200    
       hostopen.c.obj                          148      0         8      
       hostlseek.c.obj                         152      0         0      
       close.c.obj                             140      0         0      
       hostread.c.obj                          132      0         0      
       hostwrite.c.obj                         132      0         0      
       hostunlink.c.obj                        108      0         0      
       hostclose.c.obj                         96       0         0      
       unlink.c.obj                            72       0         0      
       lseek.c.obj                             52       0         0      
       write.c.obj                             52       0         0      
       hostexit.c.obj                          8        0         0      
       remove.c.obj                            4        0         0      
    +--+---------------------------------------+--------+---------+---------+
       Total:                                  1488     0         496    
                                                                         
    C:\ti\ccs2030\ccs\tools\compiler\ti-cgt-armllvm_4.0.3.LTS\lib\armv7r-ti-none-eabihf/libclang_rt.builtins.a
       udivsi3.S.obj                           464      0         0      
       udivmoddi4.S.obj                        280      0         0      
       divsi3.S.obj                            44       0         0      
       aeabi_uldivmod.S.obj                    36       0         0      
       aeabi_memset.S.obj                      28       0         0      
       aeabi_div0.c.obj                        8        0         0      
       aeabi_memcpy.S.obj                      4        0         0      
    +--+---------------------------------------+--------+---------+---------+
       Total:                                  864      0         0      
                                                                         
       Heap:                                   0        0         32768  
       Stack:                                  0        0         16384  
    +--+---------------------------------------+--------+---------+---------+
       Grand Total:                            101094   13466     115219 


GLOBAL SYMBOLS: SORTED ALPHABETICALLY BY Name 

address   name                                   
-------   ----                                   
10277ca1  AddrTranslateP_getLocalAddr            
10277e41  Board_driversOpen                      
10277f81  Board_init                             
10263b38  C$$EXIT                                
10274988  C$$IO$$                                
10273431  CLI_MMWaveExtensionHandler             
10273ca1  CLI_MMWaveExtensionHelp                
102754f1  CLI_MMWaveExtensionInit                
10269d41  CLI_open                               
10274771  CLI_write                              
102771e1  CSL_armR5GetCpuID                      
10267584  CSL_armR5ReadMpidrReg                  
10297630  CacheP_configForceWrThru               
102976f1  CacheP_disable                         
10297320  CacheP_disableL1d                      
10297348  CacheP_disableL1p                      
10297741  CacheP_enable                          
10297360  CacheP_enableL1d                       
10297378  CacheP_enableL1p                       
10297624  CacheP_getCacheLevelInfo               
102975ec  CacheP_getEnabled                      
10297661  CacheP_init                            
10297781  CacheP_inv                             
10297390  CacheP_invL1d                          
10297404  CacheP_invL1dAll                       
102973c8  CacheP_invL1p                          
1029740c  CacheP_invL1pAll                       
10297650  CacheP_setDLFO                         
10297414  CacheP_wb                              
1029748c  CacheP_wbAll                           
10297450  CacheP_wbInv                           
10297534  CacheP_wbInvAll                        
1029754c  CacheP_wbInvAllAsm                     
10277f31  ClockP_getTicks                        
102735b1  ClockP_getTimeUsec                     
10277cd1  ClockP_getTimerCount                   
10269bb1  ClockP_init                            
10277ce1  ClockP_timerClearOverflowInt           
10276b01  ClockP_timerTickIsr                    
102776a1  ClockP_usecToTicks                     
10276d60  CycleCounterP_getCount32               
10271851  CycleCounterP_init                     
102718c1  CycleCounterP_nsToTicks                
10271871  CycleCounterP_reset                    
10276eb1  DebugP_logZoneEnable                   
10275b21  DebugP_uartLogWriterPutChar            
10277b41  DebugP_uartSetDrvIndex                 
10275b71  Dpl_init                               
10275131  Drivers_edmaClose                      
10271901  Drivers_edmaOpen                       
10277e51  Drivers_open                           
10275181  Drivers_uartClose                      
102712d1  Drivers_uartInit                       
102714e1  Drivers_uartOpen                       
10272fb1  EDMA_allocDmaChannel                   
10273041  EDMA_allocParam                        
102730d1  EDMA_allocTcc                          
10275541  EDMA_ccPaRAMEntry_init                 
10277641  EDMA_channelToParamMap                 
10270361  EDMA_close                             
10277971  EDMA_clrCCErr                          
10275221  EDMA_clrEvtRegion                      
10275271  EDMA_clrIntrRegion                     
10273d21  EDMA_clrMissEvtRegion                  
10270431  EDMA_configureChannelRegion            
102752c1  EDMA_disableDmaEvtRegion               
10275311  EDMA_disableEvtIntrRegion              
102772f1  EDMA_disableQdmaEvtRegion              
1026fc21  EDMA_enableChInShadowRegRegion         
10275361  EDMA_enableDmaEvtRegion                
102753b1  EDMA_enableEvtIntrRegion               
10277321  EDMA_enableQdmaEvtRegion               
102726e1  EDMA_enableTransferRegion              
102777e1  EDMA_errIntrHighStatusGet              
1026ed41  EDMA_freeDmaChannel                    
1026eb61  EDMA_freeParam                         
1026ee21  EDMA_freeTcc                           
10274221  EDMA_getBaseAddr                       
10277801  EDMA_getCCErrStatus                    
10277351  EDMA_getEnabledIntrHighRegion          
10277381  EDMA_getEnabledIntrRegion              
10277821  EDMA_getErrIntrStatus                  
10274a51  EDMA_getHandle                         
102773b1  EDMA_getIntrStatusRegion               
10276831  EDMA_getRegionId                       
102725c1  EDMA_init                              
102773e1  EDMA_intrStatusHighGetRegion           
10277991  EDMA_isInterruptEnabled                
102700f1  EDMA_mapChToEvtQ                       
10275591  EDMA_mapQdmaChToPaRAM                  
10265ab1  EDMA_open                              
10276731  EDMA_qdmaClrMissEvtRegion              
10277841  EDMA_qdmaGetErrIntrStatus              
10274e41  EDMA_readIntrStatusRegion              
1026dd01  EDMA_registerIntr                      
10275451  EDMA_setEvtRegion                      
10274b71  EDMA_setPaRAM                          
10296350  FreeRTOS_errno                         
10297268  GET_ADFSR                              
10297280  GET_AIFSR                              
10297270  GET_DFAR                               
10297260  GET_DFSR                               
10297288  GET_IFAR                               
10297278  GET_IFSR                               
10297290  GET_SPSR                               
10274584  HOSTclose                              
10263b38  HOSTexit                               
1027218c  HOSTlseek                              
102722c8  HOSTopen                               
10272e18  HOSTread                               
10271e64  HOSTrename                             
10273f80  HOSTunlink                             
10272e9c  HOSTwrite                              
102776c1  HeapP_alloc                            
102764b1  HeapP_construct                        
10277861  HeapP_free                             
10296b41  HwiP_Params_init                       
10296ac1  HwiP_clearInt                          
10296b71  HwiP_construct                         
102971a4  HwiP_data_abort_handler                
10296911  HwiP_data_abort_handler_c              
10296d71  HwiP_destruct                          
102972a4  HwiP_disable                           
102972b4  HwiP_disableFIQ                        
10296a31  HwiP_disableInt                        
102972fc  HwiP_disableVIC                        
102972c4  HwiP_enable                            
102972d4  HwiP_enableFIQ                         
102969f1  HwiP_enableInt                         
102972ec  HwiP_enableVIC                         
10296541  HwiP_fiq_handler                       
1029730c  HwiP_getCPSR                           
10296f91  HwiP_inISR                             
10296de1  HwiP_init                              
10297060  HwiP_irq_handler                       
10296401  HwiP_irq_handler_c                     
10296b01  HwiP_post                              
102971e8  HwiP_prefetch_abort_handler            
102967d1  HwiP_prefetch_abort_handler_c          
102966b1  HwiP_reserved_handler                  
102972e4  HwiP_restore                           
10296a91  HwiP_restoreInt                        
10296ff0  HwiP_svc_handler                       
10297218  HwiP_undefined_handler                 
10296731  HwiP_undefined_handler_c               
102968a1  HwiP_user_data_abort_handler_c         
10296771  HwiP_user_prefetch_abort_handler_c     
102966f1  HwiP_user_undefined_handler_c          
10272361  IpcNotify_Params_init                  
10276331  IpcNotify_allocSwQueue                 
10277591  IpcNotify_getConfig                    
102754a1  IpcNotify_getMemoryToRead              
10274bd1  IpcNotify_getMemoryToWrite             
10277e61  IpcNotify_getSelfCoreId                
10262cd1  IpcNotify_init                         
10277121  IpcNotify_isCoreEnabled                
10277df1  IpcNotify_isCustomIpcConfigEnabled     
10264621  IpcNotify_isr                          
102701c1  IpcNotify_readAckCallback              
10272231  IpcNotify_registerClient               
10277a81  IpcNotify_registerNonNotifyCallback    
1026b0d1  IpcNotify_sendMsg                      
10276871  IpcNotify_syncCallback                 
10277211  IpcNotify_syncCustomIpcConfig          
1026c0a1  IpcNotify_trigInterrupt                
1026b391  IpcNotify_trigInterrupt_ack            
10275631  IpcNotify_unregisterClient             
102776e1  IpcNotify_wait                         
1026de01  MMWave_addAdvChirpLUTData              
1026f0c1  MMWave_addAdvChirpParam                
1026e891  MMWave_addBpmChirp                     
1026cbb1  MMWave_addChirp                        
1026d261  MMWave_addProfile                      
10274ea1  MMWave_decodeError                     
10275bc1  MMWave_encodeError                     
1026aca1  MMWave_flushCfg                        
1026e7a1  MMWave_getAdvChirpHandle               
10272ac1  MMWave_getAdvChirpParams               
1026e981  MMWave_getProfileHandle                
10275df1  MMWave_listAdd                         
10274ab1  MMWave_listCat                         
10277e71  MMWave_listGetHead                     
10277e81  MMWave_listGetNext                     
10276151  MMWave_listRemove                      
10273ff1  MMWave_listRemoveNode                  
10277e01  Mailbox_Params_init                    
10275c11  Mailbox_getRemoteCoreObj               
1026ef01  Mailbox_init                           
10276d91  Mailbox_isCoreEnabled                  
102758b1  Mailbox_readCallback                   
10275681  Module_clockEnable                     
102747d1  Module_clockSetFrequency               
102977c1  MpuP_RegionAttrs_init                  
102978f1  MpuP_disable                           
10297a08  MpuP_disableAsm                        
10297a20  MpuP_disableBRAsm                      
10297931  MpuP_enable                            
10297a30  MpuP_enableAsm                         
10297a48  MpuP_enableBRAsm                       
10297971  MpuP_init                              
102978e1  MpuP_isEnable                          
10297a58  MpuP_isEnableAsm                       
102977f1  MpuP_setRegion                         
10297a6c  MpuP_setRegionAsm                      
10274f01  Pinmux_config                          
10276f11  Pinmux_init                            
10276d88  PmuP_clearOverflowStatus               
10276d78  PmuP_disableCounters                   
10276d70  PmuP_enableCounters                    
10276d80  PmuP_getOverflowStatus                 
10276d68  PmuP_setup                             
10277e91  PowerClock_init                        
10277701  RPMessage_CreateParams_init            
10272b51  RPMessage_Params_init                  
10274f61  RPMessage_allocEndPtMsg                
1026f8a1  RPMessage_construct                    
102742f1  RPMessage_controlEndPtHandler          
102768b1  RPMessage_controlEndPtInit             
10270021  RPMessage_coreInit                     
10275c61  RPMessage_freeEndPtMsg                 
10272be1  RPMessage_getEndPtMsg                  
10269871  RPMessage_init                         
102764f1  RPMessage_isLinuxCore                  
10272f21  RPMessage_notifyCallback               
10277151  RPMessage_putEndPtMsg                  
10268971  RPMessage_recv                         
1026a9a1  RPMessage_recvHandler                  
102671a1  RPMessage_send                         
10274711  RPMessage_vringCheckEmptyTxBuf         
1026fdc1  RPMessage_vringGetEmptyTxBuf           
1026f361  RPMessage_vringGetFullRxBuf            
10276531  RPMessage_vringGetRxBufAddr            
10275cb1  RPMessage_vringGetSize                 
10276571  RPMessage_vringGetTxBufAddr            
102765b1  RPMessage_vringGetTxBufLen             
10273ba1  RPMessage_vringIsFullRxBuf             
1026fa61  RPMessage_vringPutEmptyRxBuf           
1026e101  RPMessage_vringPutFullTxBuf            
1026c6e1  RPMessage_vringReset                   
1026a511  RPMessage_vringResetInternal           
10268281  SOC_controlModuleLockMMR               
10266f91  SOC_controlModuleUnlockMMR             
10277ac1  SOC_getSelfCpuClk                      
10277d21  SOC_moduleClockEnable                  
10277761  SOC_moduleSetClockFrequency            
10275d01  SOC_rcmGetPeripheralClock              
10276f71  SOC_rcmGetR5Clock                      
10276431  SOC_rcmIsPadDisableRequired            
10276471  SOC_rcmIsR5FInLockStepMode             
10271011  SOC_rcmSetPeripheralClock              
10267ee1  SOC_virtToPhy                          
10271431  SemaphoreP_constructBinary             
10273ea1  SemaphoreP_constructMutex              
10277ae1  SemaphoreP_destruct                    
10273281  SemaphoreP_pend                        
102744b1  SemaphoreP_post                        
1026cf11  System_init                            
1027792c  TI_memcpy_small                        
10277a68  TI_memset_small                        
1026d031  TaskP_loadUpdateAll                    
10277f71  TaskP_yield                            
102769b1  TimerP_Params_init                     
10277ba1  TimerP_clearOverflowInt                
10276c01  TimerP_getCount                        
102779f1  TimerP_getReloadCount                  
10267951  TimerP_setup                           
10277b01  TimerP_start                           
10277b21  TimerP_stop                            
10268cd1  UART_close                             
10265271  UART_edmaChannelConfig                 
1026f1a1  UART_flushTxFifo                       
10275721  UART_getHandle                         
102710c1  UART_init                              
10265811  UART_open                              
1026b231  UART_read                              
1026c1e1  UART_readDma                           
1026ab21  UART_write                             
1026c321  UART_writeDma                          
1028696c  _CIOBUF_                               
10273311  _DebugP_assert                         
10297b81  _DebugP_assertNoLog                    
10272401  _DebugP_logZone                        
10298ef8  __ABORT_STACK_END                      
00000100  __ABORT_STACK_SIZE                     
10298df8  __ABORT_STACK_START                    
10287580  __BSS_END                              
1027b480  __BSS_START                            
1028696c  __CIOBUF_                              
10297df8  __FIQ_STACK_END                        
00000100  __FIQ_STACK_SIZE                       
10297cf8  __FIQ_STACK_START                      
10297cf8  __IRQ_STACK_END                        
00000100  __IRQ_STACK_SIZE                       
10297bf8  __IRQ_STACK_START                      
10293580  __STACK_END                            
00004000  __STACK_SIZE                           
10298df8  __SVC_STACK_END                        
00001000  __SVC_STACK_SIZE                       
10297df8  __SVC_STACK_START                      
00008000  __SYSMEM_SIZE                          
00000000  __TI_ATRegion0_region_sz               
00000000  __TI_ATRegion0_src_addr                
00000000  __TI_ATRegion0_trg_addr                
00000000  __TI_ATRegion1_region_sz               
00000000  __TI_ATRegion1_src_addr                
00000000  __TI_ATRegion1_trg_addr                
00000000  __TI_ATRegion2_region_sz               
00000000  __TI_ATRegion2_src_addr                
00000000  __TI_ATRegion2_trg_addr                
UNDEFED   __TI_CINIT_Base                        
UNDEFED   __TI_CINIT_Limit                       
UNDEFED   __TI_Handler_Table_Base                
UNDEFED   __TI_Handler_Table_Limit               
10274de4  __TI_auto_init_nobinit_nopinit         
1027488c  __TI_cleanup                           
10296310  __TI_cleanup_ptr                       
10271170  __TI_closefile                         
1027288c  __TI_doflush                           
10296314  __TI_dtors_ptr                         
10296354  __TI_ft_end                            
10272914  __TI_ltoa                              
ffffffff  __TI_pprof_out_hndl                    
10260000  __TI_printfi                           
ffffffff  __TI_prof_data_size                    
ffffffff  __TI_prof_data_start                   
102748e4  __TI_readmsg                           
00000000  __TI_static_base__                     
10286ee0  __TI_tmpnams                           
1027493c  __TI_writemsg                          
102720f0  __TI_wrt_ok                            
10298ff8  __UNDEFINED_STACK_END                  
00000100  __UNDEFINED_STACK_SIZE                 
10298ef8  __UNDEFINED_STACK_START                
102782a0  __aeabi_ctype_table_                   
102782a0  __aeabi_ctype_table_C                  
10296358  __aeabi_errno                          
102619f4  __aeabi_errno_addr                     
10276fd0  __aeabi_idiv                           
102636bc  __aeabi_idiv0                          
10263f1c  __aeabi_ldiv0                          
102627a4  __aeabi_memclr                         
102627a4  __aeabi_memclr4                        
102627a4  __aeabi_memclr8                        
1026495c  __aeabi_memcpy                         
1026495c  __aeabi_memcpy4                        
1026495c  __aeabi_memcpy8                        
10277db0  __aeabi_memset                         
10277db0  __aeabi_memset4                        
10277db0  __aeabi_memset8                        
10267d04  __aeabi_uidiv                          
102775b4  __aeabi_uldivmod                       
ffffffff  __binit__                              
10276fd0  __divsi3                               
10297be1  __mpu_init                             
1028f580  __stack                                
1026d148  __udivmoddi4                           
10267d04  __udivsi3                              
10297aa4  _c_int00                               
10297a80  _c_int00_sbl                           
10296128  _device                                
10295c28  _ftable                                
1029635c  _lock                                  
10264f88  _nop                                   
10296210  _stream                                
10287580  _sys_memory                            
UNDEFED   _system_post_cinit                     
10297bb1  _system_pre_init                       
10296360  _unlock                                
00000000  _vectors                               
10297bf0  abort                                  
102691d8  aligned_alloc                          
10264c98  atof                                   
10274288  atoi                                   
ffffffff  binit                                  
1027276c  close                                  
1026ca91  eTaskGetState                          
10274c84  exit                                   
10274cd8  finddevice                             
1026e2f0  fputc                                  
10268e7c  free                                   
10277a51  freertos_main                          
102737b0  frexp                                  
102737b0  frexpl                                 
10264f8c  fseek                                  
10270d28  fseeko                                 
1028626c  gCLI                                   
10286c8c  gCLIMMWaveControlCfg                   
10295d18  gCLIMMWaveExtensionTable               
10287408  gCLIMMWaveOpenCfg                      
10287548  gCLI_mmwave_freq_scale_factor          
1027890c  gCacheConfig                           
1027b444  gCacheL1dCacheLineSize                 
1027b448  gCacheL1pCacheLineSize                 
10287564  gCliTask                               
102871d0  gCliTaskObj                            
1027b480  gCliTskStack                           
102962d0  gClockConfig                           
10287450  gClockCtrl                             
10296368  gDebugLogZone                          
1029636c  gDebugP_uartDrvIndex                   
10296318  gEdmaConfig                            
10296370  gEdmaConfigNum                         
10287568  gEdmaHandle                            
10296320  gEdmaParams                            
10296374  gHwiConfig                             
10283480  gHwiCtrl                               
10296300  gIpcNotifyCoreIntrBitPos               
10295b2c  gIpcNotifyCtrl                         
10296378  gIpcNotifyInterruptConfigNum_r5fss0_0  
102961a0  gIpcNotifyInterruptConfig_r5fss0_0     
1029576c  gIpcNotifyMailboxConfig                
10285488  gIpcRpmsgCtrl                          
c5000200  gIpcSharedMem                          
10295dfc  gMailboxRemoteCoreObj_c66ss0_to_rss_r4 
10295ebc  gMailboxRemoteCoreObj_r5ss0_0_to_rss_r4
10287488  gMailbox_ctrl                          
1028756c  gMainTask                              
1028725c  gMainTaskObj                           
1027f480  gMainTaskStack                         
10278914  gMpuConfig                             
10278920  gMpuRegionConfig                       
102873b8  gRovDummyQueue                         
10296328  gSocModules                            
102962e8  gSocModulesClockFrequency              
10286f80  gTaskP_ctrl                            
10296338  gUartConfig                            
1029637c  gUartConfigNum                         
10287570  gUartHandle                            
10296298  gUartParams                            
1026fe88  getdevice                              
102963dd  isMapAvailable                         
1026b648  ldexp                                  
1026b648  ldexpl                                 
10276a18  lseek                                  
10272801  main                                   
10265264  malloc                                 
102691d8  memalign                               
1027576c  memccpy                                
1028753c  parmbuf                                
10277dd0  putchar                                
10277881  putchar_                               
10268601  pvHeapMalloc                           
10277091  pvTaskIncrementMutexHeldCount          
10296388  pxCurrentTCB                           
1026c961  pxPortInitialiseStack                  
1026fb41  r5f0_main                              
1026580c  remove                                 
10276631  rlAppendDummy                          
102733a1  rlAppendSubBlock                       
102759a1  rlDeviceGetMmWaveLinkVersion           
102759f1  rlDeviceGetMssVersion                  
10276a51  rlDeviceGetRfVersion                   
10273831  rlDeviceGetVersion                     
10270291  rlDeviceIdentifyCmdDir                 
1026ff51  rlDriverAsyncEventHandler              
102757c1  rlDriverCalCRC                         
10272051  rlDriverCalChkSum                      
10264ca1  rlDriverCmdInvoke                      
102740d1  rlDriverCmdSendRetry                   
10274b11  rlDriverConstructInMsg                 
10277531  rlDriverConstructOutMsg                
10271dc1  rlDriverExecuteGetApi                  
10273631  rlDriverExecuteSetApi                  
10276021  rlDriverFillPayload                    
10277ef1  rlDriverGetHandle                      
10277e11  rlDriverGetPlatformId                  
102767b1  rlDriverIsDeviceMapValid               
10268441  rlDriverMsgCmdReply                    
10264f91  rlDriverMsgRead                        
1026c821  rlDriverMsgReadCmdCtx                  
1026df01  rlDriverMsgReadSpawnCtx                
10267591  rlDriverMsgWrite                       
1026dc01  rlDriverProcRdMsg                      
10266211  rlDriverRdVerifyMsg                    
10269381  rlDriverRxHdrRead                      
102766b1  rlDriverShiftDWord                     
10275811  rlDriverValidateHdr                    
10272a31  rlDriverVerifyCRC                      
1026bf61  rlDriverWaitForResponse                
10276971  rlGetRfDieId                           
10272d91  rlGetSubBlock                          
10277c41  rlGetSubBlockId                        
10277c61  rlGetSubBlockLen                       
102761f1  rlRfApllSynthBwCtlConfig               
10276241  rlRfSetLdoBypassConfig                 
1029592c  rl_rxMsg                               
10295a2c  rl_txMsg                               
1026b648  scalbn                                 
1026b648  scalbnl                                
1026bcd8  setvbuf                                
10273a28  snprintf                               
10263f20  strcmp                                 
10275a38  strcspn                                
102778d4  strlen                                 
10276064  strspn                                 
102631e8  strtod                                 
10273aa0  strtok                                 
102631e8  strtold                                
10277c81  uiPortGetRunTimeCounterValue           
1029638c  ulPortInterruptNesting                 
10296390  ulPortSchedularRunning                 
10296394  ulPortTaskHasFPUContext                
10296398  ulPortYieldRequired                    
10275a80  unlink                                 
10275ad1  uxListRemove                           
1027b460  uxTopUsedPriority                      
102770c1  vApplicationGetIdleTaskMemory          
102770f1  vApplicationGetTimerTaskMemory         
10277f01  vApplicationIdleHook                   
10274361  vApplicationLoadHook                   
10276c41  vApplicationStackOverflowHook          
10277561  vHeapCreateStatic                      
102707f1  vHeapFree                              
10276e81  vListInitialise                        
10277e21  vListInitialiseItem                    
10274141  vListInsert                            
102766f1  vListInsertEnd                         
10277f91  vPortConfigTimerForRunTimeStats        
10277721  vPortFree                              
10296fb8  vPortRestoreTaskContext                
10276a91  vPortTimerTickHandler                  
10277fa1  vPortValidateInterruptPriority         
10277911  vPortYeildFromISR                      
10275021  vQueueAddToRegistry                    
10274d31  vQueueDelete                           
10274d91  vQueueUnregisterQueue                  
102743d1  vQueueWaitForMessageRestricted         
102741b1  vTaskDelay                             
1026d6c1  vTaskDelete                            
10276c81  vTaskEnterCritical                     
10275da1  vTaskExitCritical                      
1026ec51  vTaskGetInfo                           
10277611  vTaskInternalSetTimeOutState           
10277e31  vTaskMissedYield                       
10275081  vTaskPlaceOnEventList                  
10274521  vTaskPlaceOnEventListRestricted        
1026b4f1  vTaskPriorityDisinheritAfterTimeout    
1026e3e1  vTaskStartScheduler                    
10277de1  vTaskSuspendAll                        
1026a061  vTaskSwitchContext                     
1028752c  virtToPhymap                           
102772c1  vprintf_                               
102746b0  vsnprintf                              
10277740  wcslen                                 
10276ac4  write                                  
102777a1  xPortStartScheduler                    
10276cc1  xQueueCreateMutexStatic                
1026b8f1  xQueueGenericCreateStatic              
10270c71  xQueueGenericReset                     
10266d61  xQueueGenericSend                      
1026a1f1  xQueueGenericSendFromISR               
1026ae11  xQueueGiveFromISR                      
102738b1  xQueueGiveMutexRecursive               
10267771  xQueueReceive                          
1026c461  xQueueReceiveFromISR                   
10286b8c  xQueueRegistry                         
102668e1  xQueueSemaphoreTake                    
102736b1  xQueueTakeMutexRecursive               
1026e5c1  xTaskCheckForTimeOut                   
1026e4d1  xTaskCreateStatic                      
10277c01  xTaskGetCurrentTaskHandle              
102762e1  xTaskGetIdleTaskHandle                 
102767f1  xTaskGetSchedulerState                 
102777c1  xTaskGetTickCount                      
10269031  xTaskIncrementTick                     
1026d7d1  xTaskPriorityDisinherit                
1026d5b1  xTaskPriorityInherit                   
1026f281  xTaskRemoveFromEventList               
1026a6a1  xTaskResumeAll                         
10271b01  xTimerCreateTimerTask                  
102705b1  xTimerGenericCommand                   


GLOBAL SYMBOLS: SORTED BY Symbol Address 

address   name                                   
-------   ----                                   
00000000  __TI_ATRegion0_region_sz               
00000000  __TI_ATRegion0_src_addr                
00000000  __TI_ATRegion0_trg_addr                
00000000  __TI_ATRegion1_region_sz               
00000000  __TI_ATRegion1_src_addr                
00000000  __TI_ATRegion1_trg_addr                
00000000  __TI_ATRegion2_region_sz               
00000000  __TI_ATRegion2_src_addr                
00000000  __TI_ATRegion2_trg_addr                
00000000  __TI_static_base__                     
00000000  _vectors                               
00000100  __ABORT_STACK_SIZE                     
00000100  __FIQ_STACK_SIZE                       
00000100  __IRQ_STACK_SIZE                       
00000100  __UNDEFINED_STACK_SIZE                 
00001000  __SVC_STACK_SIZE                       
00004000  __STACK_SIZE                           
00008000  __SYSMEM_SIZE                          
10260000  __TI_printfi                           
102619f4  __aeabi_errno_addr                     
102627a4  __aeabi_memclr                         
102627a4  __aeabi_memclr4                        
102627a4  __aeabi_memclr8                        
10262cd1  IpcNotify_init                         
102631e8  strtod                                 
102631e8  strtold                                
102636bc  __aeabi_idiv0                          
10263b38  C$$EXIT                                
10263b38  HOSTexit                               
10263f1c  __aeabi_ldiv0                          
10263f20  strcmp                                 
10264621  IpcNotify_isr                          
1026495c  __aeabi_memcpy                         
1026495c  __aeabi_memcpy4                        
1026495c  __aeabi_memcpy8                        
10264c98  atof                                   
10264ca1  rlDriverCmdInvoke                      
10264f88  _nop                                   
10264f8c  fseek                                  
10264f91  rlDriverMsgRead                        
10265264  malloc                                 
10265271  UART_edmaChannelConfig                 
1026580c  remove                                 
10265811  UART_open                              
10265ab1  EDMA_open                              
10266211  rlDriverRdVerifyMsg                    
102668e1  xQueueSemaphoreTake                    
10266d61  xQueueGenericSend                      
10266f91  SOC_controlModuleUnlockMMR             
102671a1  RPMessage_send                         
10267584  CSL_armR5ReadMpidrReg                  
10267591  rlDriverMsgWrite                       
10267771  xQueueReceive                          
10267951  TimerP_setup                           
10267d04  __aeabi_uidiv                          
10267d04  __udivsi3                              
10267ee1  SOC_virtToPhy                          
10268281  SOC_controlModuleLockMMR               
10268441  rlDriverMsgCmdReply                    
10268601  pvHeapMalloc                           
10268971  RPMessage_recv                         
10268cd1  UART_close                             
10268e7c  free                                   
10269031  xTaskIncrementTick                     
102691d8  aligned_alloc                          
102691d8  memalign                               
10269381  rlDriverRxHdrRead                      
10269871  RPMessage_init                         
10269bb1  ClockP_init                            
10269d41  CLI_open                               
1026a061  vTaskSwitchContext                     
1026a1f1  xQueueGenericSendFromISR               
1026a511  RPMessage_vringResetInternal           
1026a6a1  xTaskResumeAll                         
1026a9a1  RPMessage_recvHandler                  
1026ab21  UART_write                             
1026aca1  MMWave_flushCfg                        
1026ae11  xQueueGiveFromISR                      
1026b0d1  IpcNotify_sendMsg                      
1026b231  UART_read                              
1026b391  IpcNotify_trigInterrupt_ack            
1026b4f1  vTaskPriorityDisinheritAfterTimeout    
1026b648  ldexp                                  
1026b648  ldexpl                                 
1026b648  scalbn                                 
1026b648  scalbnl                                
1026b8f1  xQueueGenericCreateStatic              
1026bcd8  setvbuf                                
1026bf61  rlDriverWaitForResponse                
1026c0a1  IpcNotify_trigInterrupt                
1026c1e1  UART_readDma                           
1026c321  UART_writeDma                          
1026c461  xQueueReceiveFromISR                   
1026c6e1  RPMessage_vringReset                   
1026c821  rlDriverMsgReadCmdCtx                  
1026c961  pxPortInitialiseStack                  
1026ca91  eTaskGetState                          
1026cbb1  MMWave_addChirp                        
1026cf11  System_init                            
1026d031  TaskP_loadUpdateAll                    
1026d148  __udivmoddi4                           
1026d261  MMWave_addProfile                      
1026d5b1  xTaskPriorityInherit                   
1026d6c1  vTaskDelete                            
1026d7d1  xTaskPriorityDisinherit                
1026dc01  rlDriverProcRdMsg                      
1026dd01  EDMA_registerIntr                      
1026de01  MMWave_addAdvChirpLUTData              
1026df01  rlDriverMsgReadSpawnCtx                
1026e101  RPMessage_vringPutFullTxBuf            
1026e2f0  fputc                                  
1026e3e1  vTaskStartScheduler                    
1026e4d1  xTaskCreateStatic                      
1026e5c1  xTaskCheckForTimeOut                   
1026e7a1  MMWave_getAdvChirpHandle               
1026e891  MMWave_addBpmChirp                     
1026e981  MMWave_getProfileHandle                
1026eb61  EDMA_freeParam                         
1026ec51  vTaskGetInfo                           
1026ed41  EDMA_freeDmaChannel                    
1026ee21  EDMA_freeTcc                           
1026ef01  Mailbox_init                           
1026f0c1  MMWave_addAdvChirpParam                
1026f1a1  UART_flushTxFifo                       
1026f281  xTaskRemoveFromEventList               
1026f361  RPMessage_vringGetFullRxBuf            
1026f8a1  RPMessage_construct                    
1026fa61  RPMessage_vringPutEmptyRxBuf           
1026fb41  r5f0_main                              
1026fc21  EDMA_enableChInShadowRegRegion         
1026fdc1  RPMessage_vringGetEmptyTxBuf           
1026fe88  getdevice                              
1026ff51  rlDriverAsyncEventHandler              
10270021  RPMessage_coreInit                     
102700f1  EDMA_mapChToEvtQ                       
102701c1  IpcNotify_readAckCallback              
10270291  rlDeviceIdentifyCmdDir                 
10270361  EDMA_close                             
10270431  EDMA_configureChannelRegion            
102705b1  xTimerGenericCommand                   
102707f1  vHeapFree                              
10270c71  xQueueGenericReset                     
10270d28  fseeko                                 
10271011  SOC_rcmSetPeripheralClock              
102710c1  UART_init                              
10271170  __TI_closefile                         
102712d1  Drivers_uartInit                       
10271431  SemaphoreP_constructBinary             
102714e1  Drivers_uartOpen                       
10271851  CycleCounterP_init                     
10271871  CycleCounterP_reset                    
102718c1  CycleCounterP_nsToTicks                
10271901  Drivers_edmaOpen                       
10271b01  xTimerCreateTimerTask                  
10271dc1  rlDriverExecuteGetApi                  
10271e64  HOSTrename                             
10272051  rlDriverCalChkSum                      
102720f0  __TI_wrt_ok                            
1027218c  HOSTlseek                              
10272231  IpcNotify_registerClient               
102722c8  HOSTopen                               
10272361  IpcNotify_Params_init                  
10272401  _DebugP_logZone                        
102725c1  EDMA_init                              
102726e1  EDMA_enableTransferRegion              
1027276c  close                                  
10272801  main                                   
1027288c  __TI_doflush                           
10272914  __TI_ltoa                              
10272a31  rlDriverVerifyCRC                      
10272ac1  MMWave_getAdvChirpParams               
10272b51  RPMessage_Params_init                  
10272be1  RPMessage_getEndPtMsg                  
10272d91  rlGetSubBlock                          
10272e18  HOSTread                               
10272e9c  HOSTwrite                              
10272f21  RPMessage_notifyCallback               
10272fb1  EDMA_allocDmaChannel                   
10273041  EDMA_allocParam                        
102730d1  EDMA_allocTcc                          
10273281  SemaphoreP_pend                        
10273311  _DebugP_assert                         
102733a1  rlAppendSubBlock                       
10273431  CLI_MMWaveExtensionHandler             
102735b1  ClockP_getTimeUsec                     
10273631  rlDriverExecuteSetApi                  
102736b1  xQueueTakeMutexRecursive               
102737b0  frexp                                  
102737b0  frexpl                                 
10273831  rlDeviceGetVersion                     
102738b1  xQueueGiveMutexRecursive               
10273a28  snprintf                               
10273aa0  strtok                                 
10273ba1  RPMessage_vringIsFullRxBuf             
10273ca1  CLI_MMWaveExtensionHelp                
10273d21  EDMA_clrMissEvtRegion                  
10273ea1  SemaphoreP_constructMutex              
10273f80  HOSTunlink                             
10273ff1  MMWave_listRemoveNode                  
102740d1  rlDriverCmdSendRetry                   
10274141  vListInsert                            
102741b1  vTaskDelay                             
10274221  EDMA_getBaseAddr                       
10274288  atoi                                   
102742f1  RPMessage_controlEndPtHandler          
10274361  vApplicationLoadHook                   
102743d1  vQueueWaitForMessageRestricted         
102744b1  SemaphoreP_post                        
10274521  vTaskPlaceOnEventListRestricted        
10274584  HOSTclose                              
102746b0  vsnprintf                              
10274711  RPMessage_vringCheckEmptyTxBuf         
10274771  CLI_write                              
102747d1  Module_clockSetFrequency               
1027488c  __TI_cleanup                           
102748e4  __TI_readmsg                           
1027493c  __TI_writemsg                          
10274988  C$$IO$$                                
10274a51  EDMA_getHandle                         
10274ab1  MMWave_listCat                         
10274b11  rlDriverConstructInMsg                 
10274b71  EDMA_setPaRAM                          
10274bd1  IpcNotify_getMemoryToWrite             
10274c84  exit                                   
10274cd8  finddevice                             
10274d31  vQueueDelete                           
10274d91  vQueueUnregisterQueue                  
10274de4  __TI_auto_init_nobinit_nopinit         
10274e41  EDMA_readIntrStatusRegion              
10274ea1  MMWave_decodeError                     
10274f01  Pinmux_config                          
10274f61  RPMessage_allocEndPtMsg                
10275021  vQueueAddToRegistry                    
10275081  vTaskPlaceOnEventList                  
10275131  Drivers_edmaClose                      
10275181  Drivers_uartClose                      
10275221  EDMA_clrEvtRegion                      
10275271  EDMA_clrIntrRegion                     
102752c1  EDMA_disableDmaEvtRegion               
10275311  EDMA_disableEvtIntrRegion              
10275361  EDMA_enableDmaEvtRegion                
102753b1  EDMA_enableEvtIntrRegion               
10275451  EDMA_setEvtRegion                      
102754a1  IpcNotify_getMemoryToRead              
102754f1  CLI_MMWaveExtensionInit                
10275541  EDMA_ccPaRAMEntry_init                 
10275591  EDMA_mapQdmaChToPaRAM                  
10275631  IpcNotify_unregisterClient             
10275681  Module_clockEnable                     
10275721  UART_getHandle                         
1027576c  memccpy                                
102757c1  rlDriverCalCRC                         
10275811  rlDriverValidateHdr                    
102758b1  Mailbox_readCallback                   
102759a1  rlDeviceGetMmWaveLinkVersion           
102759f1  rlDeviceGetMssVersion                  
10275a38  strcspn                                
10275a80  unlink                                 
10275ad1  uxListRemove                           
10275b21  DebugP_uartLogWriterPutChar            
10275b71  Dpl_init                               
10275bc1  MMWave_encodeError                     
10275c11  Mailbox_getRemoteCoreObj               
10275c61  RPMessage_freeEndPtMsg                 
10275cb1  RPMessage_vringGetSize                 
10275d01  SOC_rcmGetPeripheralClock              
10275da1  vTaskExitCritical                      
10275df1  MMWave_listAdd                         
10276021  rlDriverFillPayload                    
10276064  strspn                                 
10276151  MMWave_listRemove                      
102761f1  rlRfApllSynthBwCtlConfig               
10276241  rlRfSetLdoBypassConfig                 
102762e1  xTaskGetIdleTaskHandle                 
10276331  IpcNotify_allocSwQueue                 
10276431  SOC_rcmIsPadDisableRequired            
10276471  SOC_rcmIsR5FInLockStepMode             
102764b1  HeapP_construct                        
102764f1  RPMessage_isLinuxCore                  
10276531  RPMessage_vringGetRxBufAddr            
10276571  RPMessage_vringGetTxBufAddr            
102765b1  RPMessage_vringGetTxBufLen             
10276631  rlAppendDummy                          
102766b1  rlDriverShiftDWord                     
102766f1  vListInsertEnd                         
10276731  EDMA_qdmaClrMissEvtRegion              
102767b1  rlDriverIsDeviceMapValid               
102767f1  xTaskGetSchedulerState                 
10276831  EDMA_getRegionId                       
10276871  IpcNotify_syncCallback                 
102768b1  RPMessage_controlEndPtInit             
10276971  rlGetRfDieId                           
102769b1  TimerP_Params_init                     
10276a18  lseek                                  
10276a51  rlDeviceGetRfVersion                   
10276a91  vPortTimerTickHandler                  
10276ac4  write                                  
10276b01  ClockP_timerTickIsr                    
10276c01  TimerP_getCount                        
10276c41  vApplicationStackOverflowHook          
10276c81  vTaskEnterCritical                     
10276cc1  xQueueCreateMutexStatic                
10276d60  CycleCounterP_getCount32               
10276d68  PmuP_setup                             
10276d70  PmuP_enableCounters                    
10276d78  PmuP_disableCounters                   
10276d80  PmuP_getOverflowStatus                 
10276d88  PmuP_clearOverflowStatus               
10276d91  Mailbox_isCoreEnabled                  
10276e81  vListInitialise                        
10276eb1  DebugP_logZoneEnable                   
10276f11  Pinmux_init                            
10276f71  SOC_rcmGetR5Clock                      
10276fd0  __aeabi_idiv                           
10276fd0  __divsi3                               
10277091  pvTaskIncrementMutexHeldCount          
102770c1  vApplicationGetIdleTaskMemory          
102770f1  vApplicationGetTimerTaskMemory         
10277121  IpcNotify_isCoreEnabled                
10277151  RPMessage_putEndPtMsg                  
102771e1  CSL_armR5GetCpuID                      
10277211  IpcNotify_syncCustomIpcConfig          
102772c1  vprintf_                               
102772f1  EDMA_disableQdmaEvtRegion              
10277321  EDMA_enableQdmaEvtRegion               
10277351  EDMA_getEnabledIntrHighRegion          
10277381  EDMA_getEnabledIntrRegion              
102773b1  EDMA_getIntrStatusRegion               
102773e1  EDMA_intrStatusHighGetRegion           
10277531  rlDriverConstructOutMsg                
10277561  vHeapCreateStatic                      
10277591  IpcNotify_getConfig                    
102775b4  __aeabi_uldivmod                       
10277611  vTaskInternalSetTimeOutState           
10277641  EDMA_channelToParamMap                 
102776a1  ClockP_usecToTicks                     
102776c1  HeapP_alloc                            
102776e1  IpcNotify_wait                         
10277701  RPMessage_CreateParams_init            
10277721  vPortFree                              
10277740  wcslen                                 
10277761  SOC_moduleSetClockFrequency            
102777a1  xPortStartScheduler                    
102777c1  xTaskGetTickCount                      
102777e1  EDMA_errIntrHighStatusGet              
10277801  EDMA_getCCErrStatus                    
10277821  EDMA_getErrIntrStatus                  
10277841  EDMA_qdmaGetErrIntrStatus              
10277861  HeapP_free                             
10277881  putchar_                               
102778d4  strlen                                 
10277911  vPortYeildFromISR                      
1027792c  TI_memcpy_small                        
10277971  EDMA_clrCCErr                          
10277991  EDMA_isInterruptEnabled                
102779f1  TimerP_getReloadCount                  
10277a51  freertos_main                          
10277a68  TI_memset_small                        
10277a81  IpcNotify_registerNonNotifyCallback    
10277ac1  SOC_getSelfCpuClk                      
10277ae1  SemaphoreP_destruct                    
10277b01  TimerP_start                           
10277b21  TimerP_stop                            
10277b41  DebugP_uartSetDrvIndex                 
10277ba1  TimerP_clearOverflowInt                
10277c01  xTaskGetCurrentTaskHandle              
10277c41  rlGetSubBlockId                        
10277c61  rlGetSubBlockLen                       
10277c81  uiPortGetRunTimeCounterValue           
10277ca1  AddrTranslateP_getLocalAddr            
10277cd1  ClockP_getTimerCount                   
10277ce1  ClockP_timerClearOverflowInt           
10277d21  SOC_moduleClockEnable                  
10277db0  __aeabi_memset                         
10277db0  __aeabi_memset4                        
10277db0  __aeabi_memset8                        
10277dd0  putchar                                
10277de1  vTaskSuspendAll                        
10277df1  IpcNotify_isCustomIpcConfigEnabled     
10277e01  Mailbox_Params_init                    
10277e11  rlDriverGetPlatformId                  
10277e21  vListInitialiseItem                    
10277e31  vTaskMissedYield                       
10277e41  Board_driversOpen                      
10277e51  Drivers_open                           
10277e61  IpcNotify_getSelfCoreId                
10277e71  MMWave_listGetHead                     
10277e81  MMWave_listGetNext                     
10277e91  PowerClock_init                        
10277ef1  rlDriverGetHandle                      
10277f01  vApplicationIdleHook                   
10277f31  ClockP_getTicks                        
10277f71  TaskP_yield                            
10277f81  Board_init                             
10277f91  vPortConfigTimerForRunTimeStats        
10277fa1  vPortValidateInterruptPriority         
102782a0  __aeabi_ctype_table_                   
102782a0  __aeabi_ctype_table_C                  
1027890c  gCacheConfig                           
10278914  gMpuConfig                             
10278920  gMpuRegionConfig                       
1027b444  gCacheL1dCacheLineSize                 
1027b448  gCacheL1pCacheLineSize                 
1027b460  uxTopUsedPriority                      
1027b480  __BSS_START                            
1027b480  gCliTskStack                           
1027f480  gMainTaskStack                         
10283480  gHwiCtrl                               
10285488  gIpcRpmsgCtrl                          
1028626c  gCLI                                   
1028696c  _CIOBUF_                               
1028696c  __CIOBUF_                              
10286b8c  xQueueRegistry                         
10286c8c  gCLIMMWaveControlCfg                   
10286ee0  __TI_tmpnams                           
10286f80  gTaskP_ctrl                            
102871d0  gCliTaskObj                            
1028725c  gMainTaskObj                           
102873b8  gRovDummyQueue                         
10287408  gCLIMMWaveOpenCfg                      
10287450  gClockCtrl                             
10287488  gMailbox_ctrl                          
1028752c  virtToPhymap                           
1028753c  parmbuf                                
10287548  gCLI_mmwave_freq_scale_factor          
10287564  gCliTask                               
10287568  gEdmaHandle                            
1028756c  gMainTask                              
10287570  gUartHandle                            
10287580  __BSS_END                              
10287580  _sys_memory                            
1028f580  __stack                                
10293580  __STACK_END                            
1029576c  gIpcNotifyMailboxConfig                
1029592c  rl_rxMsg                               
10295a2c  rl_txMsg                               
10295b2c  gIpcNotifyCtrl                         
10295c28  _ftable                                
10295d18  gCLIMMWaveExtensionTable               
10295dfc  gMailboxRemoteCoreObj_c66ss0_to_rss_r4 
10295ebc  gMailboxRemoteCoreObj_r5ss0_0_to_rss_r4
10296128  _device                                
102961a0  gIpcNotifyInterruptConfig_r5fss0_0     
10296210  _stream                                
10296298  gUartParams                            
102962d0  gClockConfig                           
102962e8  gSocModulesClockFrequency              
10296300  gIpcNotifyCoreIntrBitPos               
10296310  __TI_cleanup_ptr                       
10296314  __TI_dtors_ptr                         
10296318  gEdmaConfig                            
10296320  gEdmaParams                            
10296328  gSocModules                            
10296338  gUartConfig                            
10296350  FreeRTOS_errno                         
10296354  __TI_ft_end                            
10296358  __aeabi_errno                          
1029635c  _lock                                  
10296360  _unlock                                
10296368  gDebugLogZone                          
1029636c  gDebugP_uartDrvIndex                   
10296370  gEdmaConfigNum                         
10296374  gHwiConfig                             
10296378  gIpcNotifyInterruptConfigNum_r5fss0_0  
1029637c  gUartConfigNum                         
10296388  pxCurrentTCB                           
1029638c  ulPortInterruptNesting                 
10296390  ulPortSchedularRunning                 
10296394  ulPortTaskHasFPUContext                
10296398  ulPortYieldRequired                    
102963dd  isMapAvailable                         
10296401  HwiP_irq_handler_c                     
10296541  HwiP_fiq_handler                       
102966b1  HwiP_reserved_handler                  
102966f1  HwiP_user_undefined_handler_c          
10296731  HwiP_undefined_handler_c               
10296771  HwiP_user_prefetch_abort_handler_c     
102967d1  HwiP_prefetch_abort_handler_c          
102968a1  HwiP_user_data_abort_handler_c         
10296911  HwiP_data_abort_handler_c              
102969f1  HwiP_enableInt                         
10296a31  HwiP_disableInt                        
10296a91  HwiP_restoreInt                        
10296ac1  HwiP_clearInt                          
10296b01  HwiP_post                              
10296b41  HwiP_Params_init                       
10296b71  HwiP_construct                         
10296d71  HwiP_destruct                          
10296de1  HwiP_init                              
10296f91  HwiP_inISR                             
10296fb8  vPortRestoreTaskContext                
10296ff0  HwiP_svc_handler                       
10297060  HwiP_irq_handler                       
102971a4  HwiP_data_abort_handler                
102971e8  HwiP_prefetch_abort_handler            
10297218  HwiP_undefined_handler                 
10297260  GET_DFSR                               
10297268  GET_ADFSR                              
10297270  GET_DFAR                               
10297278  GET_IFSR                               
10297280  GET_AIFSR                              
10297288  GET_IFAR                               
10297290  GET_SPSR                               
102972a4  HwiP_disable                           
102972b4  HwiP_disableFIQ                        
102972c4  HwiP_enable                            
102972d4  HwiP_enableFIQ                         
102972e4  HwiP_restore                           
102972ec  HwiP_enableVIC                         
102972fc  HwiP_disableVIC                        
1029730c  HwiP_getCPSR                           
10297320  CacheP_disableL1d                      
10297348  CacheP_disableL1p                      
10297360  CacheP_enableL1d                       
10297378  CacheP_enableL1p                       
10297390  CacheP_invL1d                          
102973c8  CacheP_invL1p                          
10297404  CacheP_invL1dAll                       
1029740c  CacheP_invL1pAll                       
10297414  CacheP_wb                              
10297450  CacheP_wbInv                           
1029748c  CacheP_wbAll                           
10297534  CacheP_wbInvAll                        
1029754c  CacheP_wbInvAllAsm                     
102975ec  CacheP_getEnabled                      
10297624  CacheP_getCacheLevelInfo               
10297630  CacheP_configForceWrThru               
10297650  CacheP_setDLFO                         
10297661  CacheP_init                            
102976f1  CacheP_disable                         
10297741  CacheP_enable                          
10297781  CacheP_inv                             
102977c1  MpuP_RegionAttrs_init                  
102977f1  MpuP_setRegion                         
102978e1  MpuP_isEnable                          
102978f1  MpuP_disable                           
10297931  MpuP_enable                            
10297971  MpuP_init                              
10297a08  MpuP_disableAsm                        
10297a20  MpuP_disableBRAsm                      
10297a30  MpuP_enableAsm                         
10297a48  MpuP_enableBRAsm                       
10297a58  MpuP_isEnableAsm                       
10297a6c  MpuP_setRegionAsm                      
10297a80  _c_int00_sbl                           
10297aa4  _c_int00                               
10297b81  _DebugP_assertNoLog                    
10297bb1  _system_pre_init                       
10297be1  __mpu_init                             
10297bf0  abort                                  
10297bf8  __IRQ_STACK_START                      
10297cf8  __FIQ_STACK_START                      
10297cf8  __IRQ_STACK_END                        
10297df8  __FIQ_STACK_END                        
10297df8  __SVC_STACK_START                      
10298df8  __ABORT_STACK_START                    
10298df8  __SVC_STACK_END                        
10298ef8  __ABORT_STACK_END                      
10298ef8  __UNDEFINED_STACK_START                
10298ff8  __UNDEFINED_STACK_END                  
c5000200  gIpcSharedMem                          
ffffffff  __TI_pprof_out_hndl                    
ffffffff  __TI_prof_data_size                    
ffffffff  __TI_prof_data_start                   
ffffffff  __binit__                              
ffffffff  binit                                  
UNDEFED   __TI_CINIT_Base                        
UNDEFED   __TI_CINIT_Limit                       
UNDEFED   __TI_Handler_Table_Base                
UNDEFED   __TI_Handler_Table_Limit               
UNDEFED   _system_post_cinit                     

[571 symbols]
